CCS PCH C Compiler, Version 5.101Pd, 1               07-mai-21 16:36
Compiler operating in Evaluation Mode
To obtain a fully enabled compiler visit www.ccsinfo.com/products

               Filename:   C:\Users\Nolf Simon\Desktop\EPHEC\main.lst

               ROM used:   946 bytes (3%)
                           Largest free fragment is 31818
               RAM used:   40 (3%) at main() level
                           49 (3%) worst case
               Stack used: 1 locations (0 in main + 1 for interrupts)
               Stack size: 31

*
0000:  GOTO   02E4
*
0008:  MOVWF  04
000A:  MOVFF  FD8,05
000E:  MOVFF  FE0,06
0012:  MOVLB  0
0014:  MOVFF  FE9,0C
0018:  MOVFF  FEA,07
001C:  MOVFF  FE1,08
0020:  MOVFF  FE2,09
0024:  MOVFF  FD9,0A
0028:  MOVFF  FDA,0B
002C:  MOVFF  FF3,12
0030:  MOVFF  FF4,13
0034:  MOVFF  FFA,14
0038:  MOVFF  FF5,15
003C:  MOVFF  FF6,16
0040:  MOVFF  FF7,17
0044:  MOVFF  00,0E
0048:  MOVFF  01,0F
004C:  MOVFF  02,10
0050:  MOVFF  03,11
0054:  BTFSS  FF2.4
0056:  GOTO   0060
005A:  BTFSC  FF2.1
005C:  GOTO   00C6
0060:  BTFSS  FF0.3
0062:  GOTO   006C
0066:  BTFSC  FF0.0
0068:  GOTO   00CE
006C:  BTFSS  F9D.5
006E:  GOTO   0078
0072:  BTFSC  F9E.5
0074:  GOTO   00D6
0078:  MOVFF  0E,00
007C:  MOVFF  0F,01
0080:  MOVFF  10,02
0084:  MOVFF  11,03
0088:  MOVFF  0C,FE9
008C:  MOVFF  07,FEA
0090:  BSF    07.7
0092:  MOVFF  08,FE1
0096:  MOVFF  09,FE2
009A:  MOVFF  0A,FD9
009E:  MOVFF  0B,FDA
00A2:  MOVFF  12,FF3
00A6:  MOVFF  13,FF4
00AA:  MOVFF  14,FFA
00AE:  MOVFF  15,FF5
00B2:  MOVFF  16,FF6
00B6:  MOVFF  17,FF7
00BA:  MOVF   04,W
00BC:  MOVFF  06,FE0
00C0:  MOVFF  05,FD8
00C4:  RETFIE 0
.................... #include <main.h>
.................... #include <18F458.h>
.................... //////////// Standard Header file for the PIC18F458 device ////////////////
.................... ///////////////////////////////////////////////////////////////////////////
.................... ////        (C) Copyright 1996, 2020 Custom Computer Services          ////
.................... //// This source code may only be used by licensed users of the CCS C  ////
.................... //// compiler.  This source code may only be distributed to other      ////
.................... //// licensed users of the CCS C compiler.  No other use, reproduction ////
.................... //// or distribution is permitted without written permission.          ////
.................... //// Derivative programs created using this software in object code    ////
.................... //// form are not restricted in any way.                               ////
.................... ///////////////////////////////////////////////////////////////////////////
.................... #device PIC18F458
*
00E6:  CLRF   00
00E8:  CLRF   01
00EA:  MOVF   2F,W
00EC:  BCF    FD8.0
00EE:  BTFSC  30.0
00F0:  ADDWF  00,F
00F2:  RRCF   00,F
00F4:  RRCF   01,F
00F6:  BTFSC  30.1
00F8:  ADDWF  00,F
00FA:  RRCF   00,F
00FC:  RRCF   01,F
00FE:  BTFSC  30.2
0100:  ADDWF  00,F
0102:  RRCF   00,F
0104:  RRCF   01,F
0106:  BTFSC  30.3
0108:  ADDWF  00,F
010A:  RRCF   00,F
010C:  RRCF   01,F
010E:  BTFSC  30.4
0110:  ADDWF  00,F
0112:  RRCF   00,F
0114:  RRCF   01,F
0116:  BTFSC  30.5
0118:  ADDWF  00,F
011A:  RRCF   00,F
011C:  RRCF   01,F
011E:  BTFSC  30.6
0120:  ADDWF  00,F
0122:  RRCF   00,F
0124:  RRCF   01,F
0126:  BTFSC  30.7
0128:  ADDWF  00,F
012A:  RRCF   00,F
012C:  RRCF   01,F
012E:  GOTO   01FE (RETURN)
.................... 
.................... #list
.................... 
.................... #device ADC=10
.................... 
.................... #FUSES NOWDT                    //No Watch Dog Timer
.................... 
.................... #use delay(crystal=20000000)
*
02BE:  CLRF   FEA
02C0:  MOVLW  28
02C2:  MOVWF  FE9
02C4:  MOVF   FEF,W
02C6:  BZ    02E2
02C8:  MOVLW  06
02CA:  MOVWF  01
02CC:  CLRF   00
02CE:  DECFSZ 00,F
02D0:  BRA    02CE
02D2:  DECFSZ 01,F
02D4:  BRA    02CC
02D6:  MOVLW  7B
02D8:  MOVWF  00
02DA:  DECFSZ 00,F
02DC:  BRA    02DA
02DE:  DECFSZ FEF,F
02E0:  BRA    02C8
02E2:  RETURN 0
.................... #use rs232(baud=9600,xmit=PIN_C6,rcv=PIN_C7) 
.................... 
.................... 
.................... 
.................... #include <stdio.h>
.................... ///////////////////////////////////////////////////////////////////////////
.................... ////        (C) Copyright 1996,2003 Custom Computer Services           ////
.................... //// This source code may only be used by licensed users of the CCS C  ////
.................... //// compiler.  This source code may only be distributed to other      ////
.................... //// licensed users of the CCS C compiler.  No other use, reproduction ////
.................... //// or distribution is permitted without written permission.          ////
.................... //// Derivative programs created using this software in object code    ////
.................... //// form are not restricted in any way.                               ////
.................... ///////////////////////////////////////////////////////////////////////////
.................... 
.................... #ifndef _STDIO
.................... #define _STDIO
.................... #include <string.h>
.................... ////////////////////////////////////////////////////////////////////////////
.................... ////        (C) Copyright 1996,2008 Custom Computer Services            ////
.................... //// This source code may only be used by licensed users of the CCS C   ////
.................... //// compiler.  This source code may only be distributed to other       ////
.................... //// licensed users of the CCS C compiler.  No other use, reproduction  ////
.................... //// or distribution is permitted without written permission.           ////
.................... //// Derivative programs created using this software in object code     ////
.................... //// form are not restricted in any way.                                ////
.................... ////////////////////////////////////////////////////////////////////////////
.................... 
.................... #ifndef _STRING
.................... #define _STRING
.................... #include <stddef.h>
.................... ///////////////////////////////////////////////////////////////////////////
.................... ////        (C) Copyright 1996,2003 Custom Computer Services           ////
.................... //// This source code may only be used by licensed users of the CCS C  ////
.................... //// compiler.  This source code may only be distributed to other      ////
.................... //// licensed users of the CCS C compiler.  No other use, reproduction ////
.................... //// or distribution is permitted without written permission.          ////
.................... //// Derivative programs created using this software in object code    ////
.................... //// form are not restricted in any way.                               ////
.................... ///////////////////////////////////////////////////////////////////////////
.................... 
.................... #ifndef _STDDEF
.................... 
.................... #define _STDDEF
.................... 
.................... #if sizeof(unsigned int8 *)==1
.................... #define ptrdiff_t unsigned int8
.................... #else
.................... #define ptrdiff_t unsigned int16
.................... #endif
.................... 
.................... #if defined(__PCB__) || defined(__PCM__)
.................... #define size_t unsigned int8
.................... #else
.................... #define size_t unsigned int16
.................... #endif
.................... #define wchar_t unsigned char
.................... #define NULL 0
.................... 
.................... #define offsetof(s,f) (offsetofbit(s,f)/8)
.................... 
.................... #endif
.................... 
.................... #include <ctype.h>
.................... ////////////////////////////////////////////////////////////////////////////
.................... ////        (C) Copyright 1996,2003 Custom Computer Services            ////
.................... //// This source code may only be used by licensed users of the CCS C   ////
.................... //// compiler.  This source code may only be distributed to other       ////
.................... //// licensed users of the CCS C compiler.  No other use, reproduction  ////
.................... //// or distribution is permitted without written permission.           ////
.................... //// Derivative programs created using this software in object code     ////
.................... //// form are not restricted in any way.                                ////
.................... ////////////////////////////////////////////////////////////////////////////
.................... 
.................... #ifndef _CTYPE
.................... #define _CTYPE
.................... 
.................... #define islower(x)  isamong(x,"abcdefghijklmnopqrstuvwxyz")
.................... #define isupper(x)  isamong(x,"ABCDEFGHIJKLMNOPQRSTUVWXYZ")
.................... #define isalnum(x)  isamong(x,"0123456789ABCDEFGHIJKLMNOPQRSTUVWXYZabcdefghijklmnopqrstuvwxyz")
.................... #define isalpha(x)  isamong(x,"ABCDEFGHIJKLMNOPQRSTUVWXYZabcdefghijklmnopqrstuvwxyz")
.................... #define isdigit(x)  isamong(x,"0123456789")
.................... #define isspace(x)  ((x)==' ')
.................... #define isxdigit(x) isamong(x,"0123456789ABCDEFabcdef")
.................... #define iscntrl(x)  ((x)<' ')
.................... #define isprint(x)  ((x)>=' ')
.................... #define isgraph(x)  ((x)>' ')
.................... #define ispunct(x)  (((x)>' ')&&!isalnum(x))
.................... 
.................... #endif
.................... 
.................... 
.................... 
.................... 
.................... 
.................... //////////////////////////////////////////////
.................... //// Uncomment the following define to    ////
.................... //// allow some functions to use a        ////
.................... //// quicker algorithm, but use more ROM  ////
.................... ////                                      ////
.................... //// #define FASTER_BUT_MORE_ROM          ////
.................... //////////////////////////////////////////////
.................... 
.................... 
.................... 
.................... /*Copying functions*/
.................... /* standard template:
....................    void *memmove(void *s1, void *s2, size_t n).
....................    Copies max of n characters safely (not following ending '\0')
....................    from s2 in s1; if s2 has less than n characters, appends 0 */
.................... 
.................... unsigned char *memmove(void *s1,void *s2,size_t n)
.................... {
....................    unsigned char *sc1;
....................    unsigned char *sc2;
....................    sc1=s1;
....................    sc2=s2;
....................    if(sc2<sc1 && sc1 <sc2 +n)
....................       for(sc1+=n,sc2+=n;0<n;--n)
....................          *--sc1=*--sc2;
....................    else
....................       for(;0<n;--n)
....................          *sc1++=*sc2++;
....................   return s1;
....................   }
.................... 
.................... /* Standard template: char *strcpy(char *s1, const char *s2)
....................    copies the string s2 including the null character to s1.
....................    This is a compiler built in to handle the different address
....................    spaces */
.................... 
.................... #define strcopy strcpy
.................... 
.................... /* standard template:
....................    char *strncpy(char *s1, const char *s2, size_t n).
....................    Copies max of n characters (not following ending '\0')
....................    from s2 in s1; if s2 has less than n characters, appends 0 */
.................... 
.................... char *strncpy(char *s1, char *s2, size_t n)
.................... {
....................   char *s;
.................... 
....................   for (s = s1; n > 0 && *s2 != '\0'; n--)
....................      *s++ = *s2++;
....................   for (; n > 0; n--)
....................      *s++ = '\0';
.................... 
....................   return(s1);
.................... }
.................... /***********************************************************/
.................... 
.................... /*concatenation functions*/
.................... /* standard template: char *strcat(char *s1, const char *s2)
.................... appends s2 to s1*/
.................... 
.................... char *strcat(char *s1, char *s2)
.................... {
....................    unsigned char *s;
.................... 
....................    for (s = s1; *s != '\0'; ++s);
....................    while(*s2 != '\0')
....................    {
....................       *s = *s2;
....................       ++s;
....................       ++s2;
....................    }
.................... 
....................    *s = '\0';
....................    return(s1);
.................... }
.................... /* standard template: char *strncat(char *s1, char *s2,size_t n)
.................... appends not more than n characters from s2 to s1*/
.................... 
.................... char *strncat(char *s1, char *s2, size_t n)
.................... {
....................    char *s;
.................... 
....................    for (s = s1; *s != '\0'; ++s);
....................    while(*s2 != '\0' && 0<n)
....................    {
....................       *s = *s2;
....................       ++s;
....................       ++s2;
....................       --n;
....................    }
.................... 
....................    *s = '\0';
....................    return(s1);
.................... }
.................... 
.................... /***********************************************************/
.................... 
.................... 
.................... /*comparison functions*/
.................... /* standard template: signed int memcmp(void *s1, void *s2).
....................    Compares s1 & s2; returns -1 if s1<s2, 0 if s1=s2, 1 if s1>s2 */
.................... 
.................... signed int memcmp(void * s1,void *s2,size_t n)
.................... {
.................... unsigned char *su1, *su2;
.................... for(su1=s1, su2=s2; 0<n; ++su1, ++su2, --n)
.................... {
....................    if(*su1!=*su2)
....................       return ((*su1<*su2)?-1:1);
.................... }
.................... return 0;
.................... }
.................... 
.................... /* standard template: int strcmp(const char *s1, const char *s2).
....................    Compares s1 & s2; returns -1 if s1<s2, 0 if s1=s2, 1 if s1>s2 */
.................... 
.................... signed int strcmp(char *s1, char *s2)
.................... {
....................    for (; *s1 == *s2; s1++, s2++)
....................       if (*s1 == '\0')
....................          return(0);
....................    return((*s1 < *s2) ? -1: 1);
.................... }
.................... /* standard template: int strcoll(const char *s1, const char *s2).
....................    Compares s1 & s2; returns -1 if s1<s2, 0 if s1=s2, 1 if s1>s2 */
.................... 
.................... signed int strcoll(char *s1, char *s2)
.................... {
....................    for (; *s1 == *s2; s1++, s2++)
....................       if (*s1 == '\0')
....................          return(0);
....................    return((*s1 < *s2) ? -1: 1);
.................... }
.................... 
.................... /* standard template:
....................    int strncmp(const char *s1, const char *s2, size_t n).
....................    Compares max of n characters (not following 0) from s1 to s2;
....................    returns same as strcmp */
.................... 
.................... signed int strncmp(char *s1, char *s2, size_t n)
.................... {
....................    for (; n > 0; s1++, s2++, n--)
....................       if (*s1 != *s2)
....................          return((*s1 <*s2) ? -1: 1);
....................       else if (*s1 == '\0')
....................          return(0);
....................    return(0);
.................... }
.................... /* standard template:
....................    int strxfrm(const char *s1, const char *s2, size_t n).
....................    transforms maximum of n characters from s2 and places them into s1, returns number of chars written ot s1.
....................    if s1 is NULL and n is 0, then it returns the length of s2.*/
.................... size_t strxfrm(char *s1, char *s2, size_t n)
.................... {
....................    char c;
....................    size_t n1;
....................    
....................    if (!s1 && !n)
....................       n = -1; //find length
.................... 
....................    n1 = 0;
....................    
....................    for (; n1 < n; n1++)
....................    {
....................       c = *s2++;
....................       if (!c)
....................          break;
....................       if (s1)
....................          *s1++ = c;
....................    }
.................... 
....................   return(n1);
.................... }
.................... 
.................... 
.................... 
.................... 
.................... 
.................... /***********************************************************/
.................... /*Search functions*/
.................... /* standard template: void *memchr(const char *s, int c).
....................    Finds first occurrence of c in n characters of s */
.................... 
.................... char *memchr(void *s,unsigned int8 c,size_t n)
.................... {
....................    char uc;
....................    char *su;
....................    uc=c;
....................    for(su=s;0<n;++su,--n)
....................       if(*su==uc)
....................       return su;
....................    return NULL;
.................... }
.................... 
.................... /* standard template: char *strchr(const char *s, int c).
....................    Finds first occurrence of c in s */
.................... 
.................... char *strchr(char *s, char c)
.................... {
....................    for (; *s != c; s++)
....................       if (*s == '\0')
....................          return(0);
....................    return(s);
.................... }
.................... /* standard template:
....................    size_t strcspn(const char *s1, const char *s2).
....................    Computes length of max initial segment of s1 that
....................    consists entirely of characters NOT from s2*/
.................... 
.................... size_t strcspn(char *s1, char *s2)
.................... {
....................    char *sc1, *sc2;
.................... 
....................    for (sc1 = s1; *sc1 != 0; sc1++)
....................       for (sc2 = s2; *sc2 != 0; sc2++)
....................          if (*sc1 == *sc2)
....................             return(sc1 - s1);
....................    return(sc1 - s1);
.................... }
.................... /* standard template:
....................    char *strpbrk(const char *s1, const char *s2).
....................    Locates first occurence of any character from s2 in s1;
....................    returns s1 if s2 is empty string */
.................... 
.................... char *strpbrk(char *s1, char *s2)
.................... {
....................    char *sc1, *sc2;
.................... 
....................    for (sc1 = s1; *sc1 != 0; sc1++)
....................       for (sc2 = s2; *sc2 != 0; sc2++)
....................          if (*sc1 == *sc2)
....................             return(sc1);
....................    return(0);
.................... }
.................... 
.................... 
.................... /* standard template: char *strrchr(const char *s, int c).
....................    Finds last occurrence of c in s */
.................... 
.................... char *strrchr(char *s, char c)
.................... {
....................    char *p;
.................... 
....................    for (p = 0; ; s++)
....................    {
....................       if (*s == c)
....................          p = s;
....................       if (*s == '\0')
....................          return(p);
....................    }
.................... }
.................... /* computes length of max initial segment of s1 consisting
....................    entirely of characters from s2 */
.................... 
.................... size_t strspn(char *s1, char *s2)
.................... {
....................    char *sc1, *sc2;
.................... 
....................    for (sc1 = s1; *sc1 != 0; sc1++)
....................       for (sc2 = s2; ; sc2++)
....................     if (*sc2 == '\0')
....................        return(sc1 - s1);
....................          else if (*sc1 == *sc2)
....................             break;
....................    return(sc1 - s1);
.................... }
.................... /* standard template:
....................    char *strstr(const char *s1, const char *s2);
....................    Locates first occurence of character sequence s2 in s1;
....................    returns 0 if s2 is empty string
.................... 
....................    Uncomment #define FASTER_BUT_MORE_ROM at the top of the
....................    file to use the faster algorithm */
.................... char *strstr(char *s1, char *s2)
.................... {
....................    char *s, *t;
.................... 
....................    #ifdef FASTER_BUT_MORE_ROM
....................    if (*s2 == '\0')
....................          return(s1);
....................    #endif
.................... 
....................    while (*s1)
....................    {
....................       for(s = s1, t = s2; *t && (*s == *t); ++s, ++t);
.................... 
....................       if (*t == '\0')
....................          return s1;
....................       ++s1;
....................       #ifdef FASTER_BUT_MORE_ROM
....................          while(*s1 != '\0' && *s1 != *s2)
....................             ++s1;
....................       #endif
....................    }
....................    return 0;
.................... }
.................... 
.................... /* standard template: size_t strlen(const char *s).
....................    Computes length of s1 (preceding terminating 0) */
.................... 
.................... size_t strlen(char *s)
.................... {
....................    char *sc;
.................... 
....................    for (sc = s; *sc != 0; sc++);
....................    return(sc - s);
.................... }
.................... 
.................... /* standard template: char *strtok(char *s1, const char *s2).
.................... 
....................    Finds next token in s1 delimited by a character from separator
....................    string s2 (which can be different from call to call).  First call
....................    starts at beginning of s1 searching for first character NOT
....................    contained in s2; returns 0 if none is found.
....................    If one is found, it is the start of first token (return value).
....................    Function then searches from there for a character contained in s2.
....................    If none is found, current token extends to end of s1, and subsequent
....................    searches for a token will return 0.  If one is found, it is
....................    overwritten by '\0', which terminates current token.  Function saves
....................    pointer to following character from which next search will start.
....................    Each subsequent call, with 0 as first argument, starts searching
....................    from saved pointer */
.................... 
.................... char *strtok(char *s1, char *s2)
.................... {
....................    char *beg, *end;
....................    static char *save;
.................... 
....................    beg = (s1)? s1: save;
....................    beg += strspn(beg, s2);
....................    if (*beg == '\0')
....................       return(0);
....................       
....................    end = strpbrk(beg, s2);
....................    if (end != '\0')
....................    {
....................       *end = '\0';
....................       end++;
....................       save = end;
....................    }
....................    else
....................       save = beg + strlen(beg);
....................    
....................    return(beg);
.................... }
.................... 
.................... /*****************************************************************/
.................... /*Miscellaneous functions*/
.................... /* standard template
.................... maps error number in errnum to an error message string
.................... Returns: Pointer to string
.................... */
.................... #ifdef _ERRNO
.................... char * strerror(unsigned int8 errnum)
.................... {
.................... static unsigned char s[13];
.................... switch( errnum)
.................... {
.................... case 0:
....................    strcpy(s,"no errors");
....................    return s;
.................... case EDOM :
....................    strcpy(s,"domain error");
....................    return s;
.................... case ERANGE:
....................    strcpy(s,"range error");
....................    return s;
.................... }
.................... }
.................... #ENDIF
.................... 
.................... /* standard template: size_t stricmp(const char *s1, const char *s2).
....................    Compares s1 to s2 ignoring case (upper vs. lower) */
.................... 
.................... signed int stricmp(char *s1, char *s2)
.................... {
....................  for(; *s1==*s2||(isalpha(*s1)&&isalpha(*s2)&&((char)*s1==(char)*s2+(char)32||(char)*s2==(char)*s1+(char)32));
....................     s1++, s2++)
....................     if (*s1 == '\0')
....................        return(0);
....................  return((*s1 < *s2) ? -1: 1);
.................... }
.................... 
.................... 
.................... /* standard template: char *strlwr(char *s).
....................    Replaces uppercase letters by lowercase;
....................    returns pointer to new string s */
.................... 
.................... char *strlwr(char *s)
.................... {
....................    char *p;
.................... 
....................    for (p = s; *p != '\0'; p++)
....................       if (*p >= 'A' && *p <='Z')
....................          *p += 'a' - 'A';
....................    return(s);
.................... }
.................... 
.................... /* standard template: char *strupr(char *s).
....................    Replaces lowercase letters by upercase;
....................    returns pointer to new string s */
.................... 
.................... char *strupr(char *s)
.................... {
....................    char *p;
.................... 
....................    for (p = s; *p != '\0'; p++)
....................       if (*p >= 'a' && *p <='z')
....................          *p -= 'a' - 'A';
....................    return(s);
.................... }
.................... 
.................... 
.................... /************************************************************/
.................... 
.................... 
.................... #endif
.................... 
.................... #ifndef getc
.................... #define getc getch
.................... #define getchar getch
.................... #define puts(s) {printf(s); putchar(13); putchar(10);}
.................... #define putc putchar
.................... #endif
.................... /* maps error number to an error message. Writes a sequence of characters to
.................... stderr stream thus: if s is not null then string pointed to by s follwed by
.................... a colon (:) and a space and the appropriate error message returned by strerror
.................... function with argument errno
.................... 
.................... Returns: no value
.................... */
.................... 
.................... #ifdef _ERRNO
.................... void perror(char *s)
.................... {
....................   if(s)
....................   fprintf(STDERR,"%s: ",s);
....................   fprintf(STDERR,"%s\r\n",strerror(errno));
.................... }
.................... #endif
.................... #endif
.................... 
.................... #include <stdlib.h>
.................... ///////////////////////////////////////////////////////////////////////////
.................... ////        (C) Copyright 1996,2007 Custom Computer Services           ////
.................... //// This source code may only be used by licensed users of the CCS C  ////
.................... //// compiler.  This source code may only be distributed to other      ////
.................... //// licensed users of the CCS C compiler.  No other use, reproduction ////
.................... //// or distribution is permitted without written permission.          ////
.................... //// Derivative programs created using this software in object code    ////
.................... //// form are not restricted in any way.                               ////
.................... ///////////////////////////////////////////////////////////////////////////
.................... 
.................... 
.................... #ifndef _STDLIB
.................... #define _STDLIB
.................... 
.................... //---------------------------------------------------------------------------
.................... // Definitions and types
.................... //---------------------------------------------------------------------------
.................... 
.................... #ifndef RAND_MAX
.................... #define RAND_MAX  32767    // The value of which is the maximum value
....................                            // ... returned by the rand function
.................... #endif
.................... 
.................... 
.................... #IF (sizeof(int16*)>1)
.................... #DEFINE LONG_POINTERS 1
.................... #ELSE 
.................... #DEFINE LONG_POINTERS 0
.................... #ENDIF
.................... 
.................... typedef struct {
....................    signed int quot;
....................    signed int rem;
.................... } div_t;
.................... 
.................... typedef struct {
....................    signed long quot;
....................    signed long rem;
.................... } ldiv_t;
.................... 
.................... #include <stddef.h>
.................... ///////////////////////////////////////////////////////////////////////////
.................... ////        (C) Copyright 1996,2003 Custom Computer Services           ////
.................... //// This source code may only be used by licensed users of the CCS C  ////
.................... //// compiler.  This source code may only be distributed to other      ////
.................... //// licensed users of the CCS C compiler.  No other use, reproduction ////
.................... //// or distribution is permitted without written permission.          ////
.................... //// Derivative programs created using this software in object code    ////
.................... //// form are not restricted in any way.                               ////
.................... ///////////////////////////////////////////////////////////////////////////
.................... 
.................... #ifndef _STDDEF
.................... 
.................... #define _STDDEF
.................... 
.................... #if sizeof(unsigned int8 *)==1
.................... #define ptrdiff_t unsigned int8
.................... #else
.................... #define ptrdiff_t unsigned int16
.................... #endif
.................... 
.................... #if defined(__PCB__) || defined(__PCM__)
.................... #define size_t unsigned int8
.................... #else
.................... #define size_t unsigned int16
.................... #endif
.................... #define wchar_t unsigned char
.................... #define NULL 0
.................... 
.................... #define offsetof(s,f) (offsetofbit(s,f)/8)
.................... 
.................... #endif
.................... 
.................... 
.................... //---------------------------------------------------------------------------
.................... // String conversion functions
.................... //---------------------------------------------------------------------------
.................... 
.................... /* Standard template: signed int  atoi(char * s)
....................  * converts the initial portion of the string s to a signed int
....................  * returns the converted value if any, 0 otherwise
....................  */
.................... signed int atoi(char *s);
.................... 
.................... /* Syntax: signed int32  atoi32(char * s)
....................    converts the initial portion of the string s to a signed int32
....................    returns the converted value if any, 0 otherwise*/
.................... #if (sizeof(long)==4)
....................  #define atoi32(s) atol(s)
.................... #else 
....................  signed int32 atoi32(char *s);
.................... #endif
.................... 
.................... #if defined(__PCD__)
.................... // The following functions only work on the 24 bit compiler
.................... // for the 30F, 33F, 24F and 24H parts
.................... /* Syntax: signed int48  atoi48(char * s)
....................    converts the initial portion of the string s to a signed int48
....................    returns the converted value if any, 0 otherwise*/
....................    
.................... signed int48 atoi48(char *s);
.................... 
.................... /* Syntax: signed int64  atoi64(char * s)
....................    converts the initial portion of the string s to a signed int64
....................    returns the converted value if any, 0 otherwise*/
.................... signed int64 atoi64(char *s);
.................... #endif
.................... 
.................... /* Syntax: char *  itoa(signed int32 num, int8 base, char * s)
....................    converts the signed int32 to a string and
....................    returns the converted value if any, 0 otherwise*/
.................... char * itoa(signed int32 num, unsigned int base, char * s);
.................... 
.................... /* Standard template: signed int16  atol(char * s)
....................  * converts the initial portion of the string s to a signed int16
....................  * returns the converted value if any, 0 otherwise
....................  */
.................... signed long atol(char *s);
.................... 
.................... /* Standard template: int16 strtoul(char * s,char *endptr,signed int base)
....................  * converts the initial portion of the string s, represented as an
....................  * integral value of radix base  to a signed long.
....................  * Returns the converted value if any, 0 otherwise
....................  * the final string is returned in the endptr, if endptr is not null
....................  */
.................... signed long strtol(char *s,char *endptr, signed int base);
.................... 
.................... /* Standard template: int16 strtoul(char * s,char *endptr,signed int base)
....................  * converts the initial portion of the string s, represented as an
....................  * integral value of radix base to a unsigned long.
....................  * returns the converted value if any, 0 otherwise
....................  * the final string is returned in the endptr, if endptr is not null
....................  */
.................... unsigned long strtoul(char *s,char *endptr, signed int base);
.................... 
.................... /* Standart template: float strtof(char * s,char *endptr)
....................                       float48 strtof48(char *s,char *endptr);
....................                       float64 strtod(char *s,char *endptr);
....................  * converts the initial portion of the string s to a float32, float48 or float64,
....................  * returns the converted value if any, 0 otherwise
....................  * the final string is returned in the endptr, if endptr is not null                   
.................... */
.................... float strtof(char *s,char **endptr);
.................... #if defined(__PCD__)
.................... float48 strtof48(char *s,char **endptr);
.................... float64 strtod(char *s,char **endptr);
.................... #else
.................... //provided for compatibility
.................... #define strtof48(s, e) strtof(s, e)
.................... #define strtod(s, e) strtof(s, e)
.................... #endif
.................... 
.................... /* Standard template: float32 atof(char * s)
....................  * converts the initial portion of the string s to a float.
....................  * returns the converted value if any, 0 otherwise
....................  */
.................... #define atof(s)   strtof(s, (char*)0)
.................... 
.................... #if defined(__PCD__)
.................... // The following functions only work on the 24 bit compiler
.................... // for the 30F, 33F, 24F and 24H parts
.................... 
.................... /* Standard template: float48 atof48(char * s)
....................  * converts the initial portion of the string s to a float.
....................  * returns the converted value if any, 0 otherwise
....................  */
.................... #define atof48(s) strtof48(s, 0)
.................... 
.................... /* Standard template: float64 atof64(char * s)
....................  * converts the initial portion of the string s to a float.
....................  * returns the converted value if any, 0 otherwise
....................  */
.................... #define atof64(s) strtod(s, 0)
.................... #endif
.................... 
.................... /* Standard template: float32 atoe(char * s)
....................  * converts the initial portion of the string s to a float.
....................  * returns the converted value if any, 0 otherwise
....................  * also handles E format numbers
....................  */
.................... #if !defined(__PCD__)
.................... float atoe(char * s);
.................... #endif
.................... 
.................... #if defined(__PCD__)
.................... float32 atoe(char * s);
.................... #endif
.................... 
.................... //---------------------------------------------------------------------------
.................... // Pseudo-random sequence generation functions
.................... //---------------------------------------------------------------------------
.................... 
.................... /* The rand function computes a sequence of pseudo-random integers in
....................  * the range 0 to RAND_MAX
....................  *
....................  * Parameters:
....................  *       (none)
....................  *
....................  * Returns:
....................  *       The pseudo-random integer
....................  */
.................... unsigned int16 rand(void);
.................... 
.................... /* The srand function uses the argument as a seed for a new sequence of
....................  * pseudo-random numbers to be returned by subsequent calls to rand.
....................  *
....................  * Parameters:
....................  *       [in] seed: The seed value to start from. You might need to pass
....................  *
....................  * Returns:
....................  *       (none)
....................  *
....................  * Remarks
....................  *          The srand function sets the starting point for generating
....................  *       a series of pseudorandom integers. To reinitialize the
....................  *       generator, use 1 as the seed argument. Any other value for
....................  *       seed sets the generator to a random starting point. rand
....................  *       retrieves the pseudorandom numbers that are generated.
....................  *       Calling rand before any call to srand generates the same
....................  *       sequence as calling srand with seed passed as 1.
....................  *          Usually, you need to pass a time here from outer source
....................  *       so that the numbers will be different every time you run.
....................  */
.................... void srand(unsigned int32 seed);
.................... 
.................... //---------------------------------------------------------------------------
.................... // Memory management functions
.................... //---------------------------------------------------------------------------
.................... 
.................... // Comming soon
.................... 
.................... //---------------------------------------------------------------------------
.................... // Communication with the environment
.................... //---------------------------------------------------------------------------
.................... 
.................... /* The function returns 0 always
....................  */
.................... signed int8 system(char *string);
.................... 
.................... //---------------------------------------------------------------------------
.................... // Searching and sorting utilities
.................... //---------------------------------------------------------------------------
.................... 
.................... /* Performs a binary search of a sorted array..
....................  *
....................  * Parameters:
....................  *       [in] key: Object to search for
....................  *       [in] base: Pointer to base of search data
....................  *       [in] num: Number of elements
....................  *       [in] width: Width of elements
....................  *       [in] compare: Function that compares two elements
....................  *
....................  * Returns:
....................  *       bsearch returns a pointer to an occurrence of key in the array pointed
....................  *       to by base. If key is not found, the function returns NULL. If the
....................  *       array is not in order or contains duplicate records with identical keys,
....................  *       the result is unpredictable.
....................  */
.................... //void *bsearch(const void *key, const void *base, size_t num, size_t width,
.................... //              int (*compare)(const void *, const void *));
.................... 
.................... /* Performs the shell-metzner sort (not the quick sort algorithm). The contents
....................  * of the array are sorted into ascending order according to a comparison
....................  * function pointed to by compar.
....................  *
....................  * Parameters:
....................  *       [in] base: Pointer to base of search data
....................  *       [in] num: Number of elements
....................  *       [in] width: Width of elements
....................  *       [in] compare: Function that compares two elements
....................  *
....................  * Returns:
....................  *       (none)
....................  */
.................... //void *qsort(const void *base, size_t num, size_t width,
.................... //              int (*compare)(const void *, const void *));
.................... 
.................... //---------------------------------------------------------------------------
.................... // Integer arithmetic functions
.................... //---------------------------------------------------------------------------
.................... 
.................... #define labs abs
.................... 
.................... div_t div(signed int numer, signed int denom);
.................... ldiv_t ldiv(signed long numer, signed long denom);
.................... 
.................... //---------------------------------------------------------------------------
.................... // Multibyte character functions
.................... //---------------------------------------------------------------------------
.................... 
.................... // Not supported
.................... 
.................... //---------------------------------------------------------------------------
.................... // Multibyte string functions
.................... //---------------------------------------------------------------------------
.................... 
.................... // Not supported
.................... 
.................... 
.................... //---------------------------------------------------------------------------
.................... // Internal implementation
.................... //---------------------------------------------------------------------------
.................... 
.................... #include <stddef.h>
.................... ///////////////////////////////////////////////////////////////////////////
.................... ////        (C) Copyright 1996,2003 Custom Computer Services           ////
.................... //// This source code may only be used by licensed users of the CCS C  ////
.................... //// compiler.  This source code may only be distributed to other      ////
.................... //// licensed users of the CCS C compiler.  No other use, reproduction ////
.................... //// or distribution is permitted without written permission.          ////
.................... //// Derivative programs created using this software in object code    ////
.................... //// form are not restricted in any way.                               ////
.................... ///////////////////////////////////////////////////////////////////////////
.................... 
.................... #ifndef _STDDEF
.................... 
.................... #define _STDDEF
.................... 
.................... #if sizeof(unsigned int8 *)==1
.................... #define ptrdiff_t unsigned int8
.................... #else
.................... #define ptrdiff_t unsigned int16
.................... #endif
.................... 
.................... #if defined(__PCB__) || defined(__PCM__)
.................... #define size_t unsigned int8
.................... #else
.................... #define size_t unsigned int16
.................... #endif
.................... #define wchar_t unsigned char
.................... #define NULL 0
.................... 
.................... #define offsetof(s,f) (offsetofbit(s,f)/8)
.................... 
.................... #endif
.................... 
.................... #include <string.h>
.................... ////////////////////////////////////////////////////////////////////////////
.................... ////        (C) Copyright 1996,2008 Custom Computer Services            ////
.................... //// This source code may only be used by licensed users of the CCS C   ////
.................... //// compiler.  This source code may only be distributed to other       ////
.................... //// licensed users of the CCS C compiler.  No other use, reproduction  ////
.................... //// or distribution is permitted without written permission.           ////
.................... //// Derivative programs created using this software in object code     ////
.................... //// form are not restricted in any way.                                ////
.................... ////////////////////////////////////////////////////////////////////////////
.................... 
.................... #ifndef _STRING
.................... #define _STRING
.................... #include <stddef.h>
.................... #include <ctype.h>
.................... 
.................... 
.................... 
.................... //////////////////////////////////////////////
.................... //// Uncomment the following define to    ////
.................... //// allow some functions to use a        ////
.................... //// quicker algorithm, but use more ROM  ////
.................... ////                                      ////
.................... //// #define FASTER_BUT_MORE_ROM          ////
.................... //////////////////////////////////////////////
.................... 
.................... 
.................... 
.................... /*Copying functions*/
.................... /* standard template:
....................    void *memmove(void *s1, void *s2, size_t n).
....................    Copies max of n characters safely (not following ending '\0')
....................    from s2 in s1; if s2 has less than n characters, appends 0 */
.................... 
.................... unsigned char *memmove(void *s1,void *s2,size_t n)
.................... {
....................    unsigned char *sc1;
....................    unsigned char *sc2;
....................    sc1=s1;
....................    sc2=s2;
....................    if(sc2<sc1 && sc1 <sc2 +n)
....................       for(sc1+=n,sc2+=n;0<n;--n)
....................          *--sc1=*--sc2;
....................    else
....................       for(;0<n;--n)
....................          *sc1++=*sc2++;
....................   return s1;
....................   }
.................... 
.................... /* Standard template: char *strcpy(char *s1, const char *s2)
....................    copies the string s2 including the null character to s1.
....................    This is a compiler built in to handle the different address
....................    spaces */
.................... 
.................... #define strcopy strcpy
.................... 
.................... /* standard template:
....................    char *strncpy(char *s1, const char *s2, size_t n).
....................    Copies max of n characters (not following ending '\0')
....................    from s2 in s1; if s2 has less than n characters, appends 0 */
.................... 
.................... char *strncpy(char *s1, char *s2, size_t n)
.................... {
....................   char *s;
.................... 
....................   for (s = s1; n > 0 && *s2 != '\0'; n--)
....................      *s++ = *s2++;
....................   for (; n > 0; n--)
....................      *s++ = '\0';
.................... 
....................   return(s1);
.................... }
.................... /***********************************************************/
.................... 
.................... /*concatenation functions*/
.................... /* standard template: char *strcat(char *s1, const char *s2)
.................... appends s2 to s1*/
.................... 
.................... char *strcat(char *s1, char *s2)
.................... {
....................    unsigned char *s;
.................... 
....................    for (s = s1; *s != '\0'; ++s);
....................    while(*s2 != '\0')
....................    {
....................       *s = *s2;
....................       ++s;
....................       ++s2;
....................    }
.................... 
....................    *s = '\0';
....................    return(s1);
.................... }
.................... /* standard template: char *strncat(char *s1, char *s2,size_t n)
.................... appends not more than n characters from s2 to s1*/
.................... 
.................... char *strncat(char *s1, char *s2, size_t n)
.................... {
....................    char *s;
.................... 
....................    for (s = s1; *s != '\0'; ++s);
....................    while(*s2 != '\0' && 0<n)
....................    {
....................       *s = *s2;
....................       ++s;
....................       ++s2;
....................       --n;
....................    }
.................... 
....................    *s = '\0';
....................    return(s1);
.................... }
.................... 
.................... /***********************************************************/
.................... 
.................... 
.................... /*comparison functions*/
.................... /* standard template: signed int memcmp(void *s1, void *s2).
....................    Compares s1 & s2; returns -1 if s1<s2, 0 if s1=s2, 1 if s1>s2 */
.................... 
.................... signed int memcmp(void * s1,void *s2,size_t n)
.................... {
.................... unsigned char *su1, *su2;
.................... for(su1=s1, su2=s2; 0<n; ++su1, ++su2, --n)
.................... {
....................    if(*su1!=*su2)
....................       return ((*su1<*su2)?-1:1);
.................... }
.................... return 0;
.................... }
.................... 
.................... /* standard template: int strcmp(const char *s1, const char *s2).
....................    Compares s1 & s2; returns -1 if s1<s2, 0 if s1=s2, 1 if s1>s2 */
.................... 
.................... signed int strcmp(char *s1, char *s2)
.................... {
....................    for (; *s1 == *s2; s1++, s2++)
....................       if (*s1 == '\0')
....................          return(0);
....................    return((*s1 < *s2) ? -1: 1);
.................... }
.................... /* standard template: int strcoll(const char *s1, const char *s2).
....................    Compares s1 & s2; returns -1 if s1<s2, 0 if s1=s2, 1 if s1>s2 */
.................... 
.................... signed int strcoll(char *s1, char *s2)
.................... {
....................    for (; *s1 == *s2; s1++, s2++)
....................       if (*s1 == '\0')
....................          return(0);
....................    return((*s1 < *s2) ? -1: 1);
.................... }
.................... 
.................... /* standard template:
....................    int strncmp(const char *s1, const char *s2, size_t n).
....................    Compares max of n characters (not following 0) from s1 to s2;
....................    returns same as strcmp */
.................... 
.................... signed int strncmp(char *s1, char *s2, size_t n)
.................... {
....................    for (; n > 0; s1++, s2++, n--)
....................       if (*s1 != *s2)
....................          return((*s1 <*s2) ? -1: 1);
....................       else if (*s1 == '\0')
....................          return(0);
....................    return(0);
.................... }
.................... /* standard template:
....................    int strxfrm(const char *s1, const char *s2, size_t n).
....................    transforms maximum of n characters from s2 and places them into s1, returns number of chars written ot s1.
....................    if s1 is NULL and n is 0, then it returns the length of s2.*/
.................... size_t strxfrm(char *s1, char *s2, size_t n)
.................... {
....................    char c;
....................    size_t n1;
....................    
....................    if (!s1 && !n)
....................       n = -1; //find length
.................... 
....................    n1 = 0;
....................    
....................    for (; n1 < n; n1++)
....................    {
....................       c = *s2++;
....................       if (!c)
....................          break;
....................       if (s1)
....................          *s1++ = c;
....................    }
.................... 
....................   return(n1);
.................... }
.................... 
.................... 
.................... 
.................... 
.................... 
.................... /***********************************************************/
.................... /*Search functions*/
.................... /* standard template: void *memchr(const char *s, int c).
....................    Finds first occurrence of c in n characters of s */
.................... 
.................... char *memchr(void *s,unsigned int8 c,size_t n)
.................... {
....................    char uc;
....................    char *su;
....................    uc=c;
....................    for(su=s;0<n;++su,--n)
....................       if(*su==uc)
....................       return su;
....................    return NULL;
.................... }
.................... 
.................... /* standard template: char *strchr(const char *s, int c).
....................    Finds first occurrence of c in s */
.................... 
.................... char *strchr(char *s, char c)
.................... {
....................    for (; *s != c; s++)
....................       if (*s == '\0')
....................          return(0);
....................    return(s);
.................... }
.................... /* standard template:
....................    size_t strcspn(const char *s1, const char *s2).
....................    Computes length of max initial segment of s1 that
....................    consists entirely of characters NOT from s2*/
.................... 
.................... size_t strcspn(char *s1, char *s2)
.................... {
....................    char *sc1, *sc2;
.................... 
....................    for (sc1 = s1; *sc1 != 0; sc1++)
....................       for (sc2 = s2; *sc2 != 0; sc2++)
....................          if (*sc1 == *sc2)
....................             return(sc1 - s1);
....................    return(sc1 - s1);
.................... }
.................... /* standard template:
....................    char *strpbrk(const char *s1, const char *s2).
....................    Locates first occurence of any character from s2 in s1;
....................    returns s1 if s2 is empty string */
.................... 
.................... char *strpbrk(char *s1, char *s2)
.................... {
....................    char *sc1, *sc2;
.................... 
....................    for (sc1 = s1; *sc1 != 0; sc1++)
....................       for (sc2 = s2; *sc2 != 0; sc2++)
....................          if (*sc1 == *sc2)
....................             return(sc1);
....................    return(0);
.................... }
.................... 
.................... 
.................... /* standard template: char *strrchr(const char *s, int c).
....................    Finds last occurrence of c in s */
.................... 
.................... char *strrchr(char *s, char c)
.................... {
....................    char *p;
.................... 
....................    for (p = 0; ; s++)
....................    {
....................       if (*s == c)
....................          p = s;
....................       if (*s == '\0')
....................          return(p);
....................    }
.................... }
.................... /* computes length of max initial segment of s1 consisting
....................    entirely of characters from s2 */
.................... 
.................... size_t strspn(char *s1, char *s2)
.................... {
....................    char *sc1, *sc2;
.................... 
....................    for (sc1 = s1; *sc1 != 0; sc1++)
....................       for (sc2 = s2; ; sc2++)
....................     if (*sc2 == '\0')
....................        return(sc1 - s1);
....................          else if (*sc1 == *sc2)
....................             break;
....................    return(sc1 - s1);
.................... }
.................... /* standard template:
....................    char *strstr(const char *s1, const char *s2);
....................    Locates first occurence of character sequence s2 in s1;
....................    returns 0 if s2 is empty string
.................... 
....................    Uncomment #define FASTER_BUT_MORE_ROM at the top of the
....................    file to use the faster algorithm */
.................... char *strstr(char *s1, char *s2)
.................... {
....................    char *s, *t;
.................... 
....................    #ifdef FASTER_BUT_MORE_ROM
....................    if (*s2 == '\0')
....................          return(s1);
....................    #endif
.................... 
....................    while (*s1)
....................    {
....................       for(s = s1, t = s2; *t && (*s == *t); ++s, ++t);
.................... 
....................       if (*t == '\0')
....................          return s1;
....................       ++s1;
....................       #ifdef FASTER_BUT_MORE_ROM
....................          while(*s1 != '\0' && *s1 != *s2)
....................             ++s1;
....................       #endif
....................    }
....................    return 0;
.................... }
.................... 
.................... /* standard template: size_t strlen(const char *s).
....................    Computes length of s1 (preceding terminating 0) */
.................... 
.................... size_t strlen(char *s)
.................... {
....................    char *sc;
.................... 
....................    for (sc = s; *sc != 0; sc++);
....................    return(sc - s);
.................... }
.................... 
.................... /* standard template: char *strtok(char *s1, const char *s2).
.................... 
....................    Finds next token in s1 delimited by a character from separator
....................    string s2 (which can be different from call to call).  First call
....................    starts at beginning of s1 searching for first character NOT
....................    contained in s2; returns 0 if none is found.
....................    If one is found, it is the start of first token (return value).
....................    Function then searches from there for a character contained in s2.
....................    If none is found, current token extends to end of s1, and subsequent
....................    searches for a token will return 0.  If one is found, it is
....................    overwritten by '\0', which terminates current token.  Function saves
....................    pointer to following character from which next search will start.
....................    Each subsequent call, with 0 as first argument, starts searching
....................    from saved pointer */
.................... 
.................... char *strtok(char *s1, char *s2)
.................... {
....................    char *beg, *end;
....................    static char *save;
.................... 
....................    beg = (s1)? s1: save;
....................    beg += strspn(beg, s2);
....................    if (*beg == '\0')
....................       return(0);
....................       
....................    end = strpbrk(beg, s2);
....................    if (end != '\0')
....................    {
....................       *end = '\0';
....................       end++;
....................       save = end;
....................    }
....................    else
....................       save = beg + strlen(beg);
....................    
....................    return(beg);
.................... }
.................... 
.................... /*****************************************************************/
.................... /*Miscellaneous functions*/
.................... /* standard template
.................... maps error number in errnum to an error message string
.................... Returns: Pointer to string
.................... */
.................... #ifdef _ERRNO
.................... char * strerror(unsigned int8 errnum)
.................... {
.................... static unsigned char s[13];
.................... switch( errnum)
.................... {
.................... case 0:
....................    strcpy(s,"no errors");
....................    return s;
.................... case EDOM :
....................    strcpy(s,"domain error");
....................    return s;
.................... case ERANGE:
....................    strcpy(s,"range error");
....................    return s;
.................... }
.................... }
.................... #ENDIF
.................... 
.................... /* standard template: size_t stricmp(const char *s1, const char *s2).
....................    Compares s1 to s2 ignoring case (upper vs. lower) */
.................... 
.................... signed int stricmp(char *s1, char *s2)
.................... {
....................  for(; *s1==*s2||(isalpha(*s1)&&isalpha(*s2)&&((char)*s1==(char)*s2+(char)32||(char)*s2==(char)*s1+(char)32));
....................     s1++, s2++)
....................     if (*s1 == '\0')
....................        return(0);
....................  return((*s1 < *s2) ? -1: 1);
.................... }
.................... 
.................... 
.................... /* standard template: char *strlwr(char *s).
....................    Replaces uppercase letters by lowercase;
....................    returns pointer to new string s */
.................... 
.................... char *strlwr(char *s)
.................... {
....................    char *p;
.................... 
....................    for (p = s; *p != '\0'; p++)
....................       if (*p >= 'A' && *p <='Z')
....................          *p += 'a' - 'A';
....................    return(s);
.................... }
.................... 
.................... /* standard template: char *strupr(char *s).
....................    Replaces lowercase letters by upercase;
....................    returns pointer to new string s */
.................... 
.................... char *strupr(char *s)
.................... {
....................    char *p;
.................... 
....................    for (p = s; *p != '\0'; p++)
....................       if (*p >= 'a' && *p <='z')
....................          *p -= 'a' - 'A';
....................    return(s);
.................... }
.................... 
.................... 
.................... /************************************************************/
.................... 
.................... 
.................... #endif
.................... 
.................... 
.................... div_t div(signed int numer, signed int denom)
.................... {
....................    div_t val;
....................    val.quot = numer / denom;
....................    val.rem = numer - (denom * val.quot);
....................    return (val);
.................... }
.................... 
.................... ldiv_t ldiv(signed long numer, signed long denom)
.................... {
....................    ldiv_t val;
.................... 
....................    val.quot = numer / denom;
....................    val.rem = numer - (denom * val.quot);
....................    return (val);
.................... }
.................... 
.................... #if defined(__PCD__)
.................... float32 atoe(char * s)
.................... {
....................    float32 pow10 = 1.0;
....................    float32 result = 0.0;
....................    unsigned int8 sign = 0;
....................    unsigned int8 expsign = 0;
....................    char c;
....................    unsigned int8 ptr = 0;
....................    unsigned int8 i;
....................    float32 exp = 1.0;
....................    unsigned int8 expcnt = 0;
.................... 
....................    c = s[ptr++];
.................... 
....................    if ((c>='0' && c<='9') || c=='+' || c=='-' || c=='.' || c=='E' || c=='e') {
....................       if(c == '-') {
....................          sign = 1;
....................          c = s[ptr++];
....................       }
....................       if(c == '+')
....................          c = s[ptr++];
.................... 
....................       while((c >= '0' && c <= '9')) {
....................          result = 10*result + c - '0';
....................          c = s[ptr++];
....................       }
.................... 
....................       if (c == '.') {
....................          c = s[ptr++];
....................          while((c >= '0' && c <= '9')) {
....................              pow10 = pow10*10;
....................              result += (c - '0')/pow10;
....................              c = s[ptr++];
....................          }
....................       }
.................... 
....................       // Handling the exponent
....................       if (c=='e' || c=='E') {
....................          c = s[ptr++];
.................... 
....................          if(c == '-') {
....................             expsign = 1;
....................             c = s[ptr++];
....................          }
....................          if(c == '+')
....................             c = s[ptr++];
.................... 
....................          while((c >= '0' && c <= '9')) {
....................             expcnt = 10*expcnt + c - '0';
....................             c = s[ptr++];
....................          }
.................... 
....................          for(i=0;i<expcnt;i++)
....................             exp*=10;
.................... 
....................          if(expsign==1)
....................             result/=exp;
....................          else
....................             result*=exp;
....................       }
....................    }
.................... 
....................    if (sign == 1)
....................       result = -1*result;
....................    return(result);
.................... }
.................... #endif
.................... 
.................... #if !defined(__PCD__)
.................... float atoe(char * s)
.................... {
....................    float pow10 = 1.0;
....................    float result = 0.0;
....................    unsigned int8 sign = 0;
....................    unsigned int8 expsign = 0;
....................    char c;
....................    unsigned int8 ptr = 0;
....................    unsigned int8 i;
....................    float exp = 1.0;
....................    unsigned int8 expcnt = 0;
.................... 
....................    c = s[ptr++];
.................... 
....................    if ((c>='0' && c<='9') || c=='+' || c=='-' || c=='.' || c=='E' || c=='e') {
....................       if(c == '-') {
....................          sign = 1;
....................          c = s[ptr++];
....................       }
....................       if(c == '+')
....................          c = s[ptr++];
.................... 
....................       while((c >= '0' && c <= '9')) {
....................          result = 10*result + c - '0';
....................          c = s[ptr++];
....................       }
.................... 
....................       if (c == '.') {
....................          c = s[ptr++];
....................          while((c >= '0' && c <= '9')) {
....................              pow10 = pow10*10;
....................              result += (c - '0')/pow10;
....................              c = s[ptr++];
....................          }
....................       }
.................... 
....................       // Handling the exponent
....................       if (c=='e' || c=='E') {
....................          c = s[ptr++];
.................... 
....................          if(c == '-') {
....................             expsign = 1;
....................             c = s[ptr++];
....................          }
....................          if(c == '+')
....................             c = s[ptr++];
.................... 
....................          while((c >= '0' && c <= '9')) {
....................             expcnt = 10*expcnt + c - '0';
....................             c = s[ptr++];
....................          }
.................... 
....................          for(i=0;i<expcnt;i++)
....................             exp*=10;
.................... 
....................          if(expsign==1)
....................             result/=exp;
....................          else
....................             result*=exp;
....................       }
....................    }
.................... 
....................    if (sign == 1)
....................       result = -1*result;
....................    return(result);
.................... }
.................... #endif
.................... 
.................... signed int atoi(char *s)
.................... {
....................    signed int result;
....................    unsigned int sign, base, index;
....................    char c;
.................... 
....................    index = 0;
*
0132:  CLRF   2D
....................    sign = 0;
0134:  CLRF   2B
....................    base = 10;
0136:  MOVLW  0A
0138:  MOVWF  2C
....................    result = 0;
013A:  CLRF   2A
.................... 
....................    if (!s)
013C:  MOVF   28,W
013E:  IORWF  29,W
0140:  BNZ   0148
....................       return 0;
0142:  MOVLW  00
0144:  MOVWF  01
0146:  BRA    02BA
....................    // Omit all preceeding alpha characters
....................    c = s[index++];
0148:  MOVF   2D,W
014A:  INCF   2D,F
014C:  ADDWF  28,W
014E:  MOVWF  FE9
0150:  MOVLW  00
0152:  ADDWFC 29,W
0154:  MOVWF  FEA
0156:  MOVFF  FEF,2E
.................... 
....................    // increase index if either positive or negative sign is detected
....................    if (c == '-')
015A:  MOVF   2E,W
015C:  SUBLW  2D
015E:  BNZ   0178
....................    {
....................       sign = 1;         // Set the sign to negative
0160:  MOVLW  01
0162:  MOVWF  2B
....................       c = s[index++];
0164:  MOVF   2D,W
0166:  INCF   2D,F
0168:  ADDWF  28,W
016A:  MOVWF  FE9
016C:  MOVLW  00
016E:  ADDWFC 29,W
0170:  MOVWF  FEA
0172:  MOVFF  FEF,2E
....................    }
0176:  BRA    0190
....................    else if (c == '+')
0178:  MOVF   2E,W
017A:  SUBLW  2B
017C:  BNZ   0190
....................    {
....................       c = s[index++];
017E:  MOVF   2D,W
0180:  INCF   2D,F
0182:  ADDWF  28,W
0184:  MOVWF  FE9
0186:  MOVLW  00
0188:  ADDWFC 29,W
018A:  MOVWF  FEA
018C:  MOVFF  FEF,2E
....................    }
.................... 
....................    if (c >= '0' && c <= '9')
0190:  MOVF   2E,W
0192:  SUBLW  2F
0194:  BTFSC  FD8.0
0196:  BRA    02AA
0198:  MOVF   2E,W
019A:  SUBLW  39
019C:  BTFSS  FD8.0
019E:  BRA    02AA
....................    {
.................... 
....................       // Check for hexa number
....................       if (c == '0' && (s[index] == 'x' || s[index] == 'X'))
01A0:  MOVF   2E,W
01A2:  SUBLW  30
01A4:  BNZ   01E2
01A6:  MOVF   2D,W
01A8:  ADDWF  28,W
01AA:  MOVWF  FE9
01AC:  MOVLW  00
01AE:  ADDWFC 29,W
01B0:  MOVWF  FEA
01B2:  MOVF   FEF,W
01B4:  SUBLW  78
01B6:  BZ    01CA
01B8:  MOVF   2D,W
01BA:  ADDWF  28,W
01BC:  MOVWF  FE9
01BE:  MOVLW  00
01C0:  ADDWFC 29,W
01C2:  MOVWF  FEA
01C4:  MOVF   FEF,W
01C6:  SUBLW  58
01C8:  BNZ   01E2
....................       {
....................          base = 16;
01CA:  MOVLW  10
01CC:  MOVWF  2C
....................          index++;
01CE:  INCF   2D,F
....................          c = s[index++];
01D0:  MOVF   2D,W
01D2:  INCF   2D,F
01D4:  ADDWF  28,W
01D6:  MOVWF  FE9
01D8:  MOVLW  00
01DA:  ADDWFC 29,W
01DC:  MOVWF  FEA
01DE:  MOVFF  FEF,2E
....................       }
.................... 
....................       // The number is a decimal number
....................       if (base == 10)
01E2:  MOVF   2C,W
01E4:  SUBLW  0A
01E6:  BNZ   021C
....................       {
....................          while (c >= '0' && c <= '9')
01E8:  MOVF   2E,W
01EA:  SUBLW  2F
01EC:  BC    021A
01EE:  MOVF   2E,W
01F0:  SUBLW  39
01F2:  BNC   021A
....................          {
....................             result = 10*result + (c - '0');
01F4:  MOVLW  0A
01F6:  MOVWF  2F
01F8:  MOVFF  2A,30
01FC:  BRA    00E6
01FE:  MOVLW  30
0200:  SUBWF  2E,W
0202:  ADDWF  01,W
0204:  MOVWF  2A
....................             c = s[index++];
0206:  MOVF   2D,W
0208:  INCF   2D,F
020A:  ADDWF  28,W
020C:  MOVWF  FE9
020E:  MOVLW  00
0210:  ADDWFC 29,W
0212:  MOVWF  FEA
0214:  MOVFF  FEF,2E
0218:  BRA    01E8
....................          }
....................       }
021A:  BRA    02AA
....................       else if (base == 16)    // The number is a hexa number
021C:  MOVF   2C,W
021E:  SUBLW  10
0220:  BNZ   02AA
....................       {
....................          c = toupper(c);
0222:  MOVF   2E,W
0224:  SUBLW  60
0226:  BC    0234
0228:  MOVF   2E,W
022A:  SUBLW  7A
022C:  BNC   0234
022E:  MOVF   2E,W
0230:  ANDLW  DF
0232:  BRA    0236
0234:  MOVF   2E,W
0236:  MOVWF  2E
....................          while ( (c >= '0' && c <= '9') || (c >= 'A' && c<='F'))
0238:  MOVF   2E,W
023A:  SUBLW  2F
023C:  BC    0244
023E:  MOVF   2E,W
0240:  SUBLW  39
0242:  BC    0250
0244:  MOVF   2E,W
0246:  SUBLW  40
0248:  BC    02AA
024A:  MOVF   2E,W
024C:  SUBLW  46
024E:  BNC   02AA
....................          {
....................             if (c >= '0' && c <= '9')
0250:  MOVF   2E,W
0252:  SUBLW  2F
0254:  BC    026E
0256:  MOVF   2E,W
0258:  SUBLW  39
025A:  BNC   026E
....................                result = (result << 4) + (c - '0');
025C:  SWAPF  2A,W
025E:  MOVWF  2F
0260:  MOVLW  F0
0262:  ANDWF  2F,F
0264:  MOVLW  30
0266:  SUBWF  2E,W
0268:  ADDWF  2F,W
026A:  MOVWF  2A
026C:  BRA    0280
....................             else
....................                result = (result << 4) + (c - 'A' + 10);
026E:  SWAPF  2A,W
0270:  MOVWF  2F
0272:  MOVLW  F0
0274:  ANDWF  2F,F
0276:  MOVLW  41
0278:  SUBWF  2E,W
027A:  ADDLW  0A
027C:  ADDWF  2F,W
027E:  MOVWF  2A
.................... 
....................             c = s[index++];
0280:  MOVF   2D,W
0282:  INCF   2D,F
0284:  ADDWF  28,W
0286:  MOVWF  FE9
0288:  MOVLW  00
028A:  ADDWFC 29,W
028C:  MOVWF  FEA
028E:  MOVFF  FEF,2E
....................             c = toupper(c);
0292:  MOVF   2E,W
0294:  SUBLW  60
0296:  BC    02A4
0298:  MOVF   2E,W
029A:  SUBLW  7A
029C:  BNC   02A4
029E:  MOVF   2E,W
02A0:  ANDLW  DF
02A2:  BRA    02A6
02A4:  MOVF   2E,W
02A6:  MOVWF  2E
02A8:  BRA    0238
....................          }
....................       }
....................    }
.................... 
....................    if (sign == 1 && base == 10)
02AA:  DECFSZ 2B,W
02AC:  BRA    02B6
02AE:  MOVF   2C,W
02B0:  SUBLW  0A
02B2:  BNZ   02B6
....................        result = -result;
02B4:  NEGF   2A
.................... 
....................    return(result);
02B6:  MOVFF  2A,01
02BA:  GOTO   0330 (RETURN)
.................... }
.................... 
.................... signed long atol(char *s)
.................... {
....................    signed long result;
....................    unsigned int sign, base, index;
....................    char c;
.................... 
....................    index = 0;
....................    sign = 0;
....................    base = 10;
....................    result = 0;
.................... 
....................    if (!s)
....................       return 0;
....................    c = s[index++];
.................... 
....................    // increase index if either positive or negative sign is detected
....................    if (c == '-')
....................    {
....................       sign = 1;         // Set the sign to negative
....................       c = s[index++];
....................    }
....................    else if (c == '+')
....................    {
....................       c = s[index++];
....................    }
.................... 
....................    if (c >= '0' && c <= '9')
....................    {
....................       if (c == '0' && (s[index] == 'x' || s[index] == 'X'))
....................       {
....................          base = 16;
....................          index++;
....................          c = s[index++];
....................       }
.................... 
....................       // The number is a decimal number
....................       if (base == 10)
....................       {
....................          while (c >= '0' && c <= '9')
....................          {
....................             result = 10*result + (c - '0');
....................             c = s[index++];
....................          }
....................       }
....................       else if (base == 16)    // The number is a hexa number
....................       {
....................          c = toupper(c);
....................          while ( (c >= '0' && c <= '9') || (c >= 'A' && c <='F'))
....................          {
....................             if (c >= '0' && c <= '9')
....................                result = (result << 4) + (c - '0');
....................             else
....................                result = (result << 4) + (c - 'A' + 10);
.................... 
....................             c = s[index++];c = toupper(c);
....................          }
....................       }
....................    }
.................... 
....................    if (base == 10 && sign == 1)
....................       result = -result;
.................... 
....................    return(result);
.................... }
.................... 
.................... /* A fast routine to multiply by 10
....................  */
.................... signed int32 mult_with10(int32 num)
.................... {
....................    return ( (num << 1) + (num << 3) );
.................... }
.................... 
.................... #if sizeof(long)==2
.................... signed int32 atoi32(char *s)
.................... {
....................    signed int32 result;
....................    int8 sign, base, index;
....................    char c;
.................... 
....................    index = 0;
....................    sign = 0;
....................    base = 10;
....................    result = 0;
.................... 
....................    if (!s)
....................       return 0;
....................    c = s[index++];
.................... 
....................    // increase index if either positive or negative sign is detected
....................    if (c == '-')
....................    {
....................       sign = 1;         // Set the sign to negative
....................       c = s[index++];
....................    }
....................    else if (c == '+')
....................    {
....................       c = s[index++];
....................    }
.................... 
....................    if (c >= '0' && c <= '9')
....................    {
....................       if (c == '0' && (s[index] == 'x' || s[index] == 'X'))
....................       {
....................          base = 16;
....................          index++;
....................          c = s[index++];
....................       }
.................... 
....................       // The number is a decimal number
....................       if (base == 10)
....................       {
....................          while (c >= '0' && c <= '9') {
....................             result = (result << 1) + (result << 3);  // result *= 10;
....................             result += (c - '0');
....................             c = s[index++];
....................          }
....................       }
....................       else if (base == 16)    // The number is a hexa number
....................       {
....................          c = toupper(c);
....................          while ((c >= '0' && c <= '9') || (c >= 'A' && c <='F'))
....................          {
....................             if (c >= '0' && c <= '9')
....................                result = (result << 4) + (c - '0');
....................             else
....................                result = (result << 4) + (c - 'A' + 10);
.................... 
....................             c = s[index++];c = toupper(c);
....................          }
....................       }
....................    }
.................... 
....................    if (base == 10 && sign == 1)
....................       result = -result;
.................... 
....................    return(result);
.................... }
.................... #endif
.................... 
.................... #if defined(__PCD__)
.................... 
.................... signed int48 atoi48(char *s)
.................... {
....................    signed int48 result;
....................    int8 sign, base, index;
....................    char c;
.................... 
....................    index = 0;
....................    sign = 0;
....................    base = 10;
....................    result = 0;
.................... 
....................    if (!s)
....................       return 0;
....................    c = s[index++];
.................... 
....................    // increase index if either positive or negative sign is detected
....................    if (c == '-')
....................    {
....................       sign = 1;         // Set the sign to negative
....................       c = s[index++];
....................    }
....................    else if (c == '+')
....................    {
....................       c = s[index++];
....................    }
.................... 
....................    if (c >= '0' && c <= '9')
....................    {
....................       if (c == '0' && (s[index] == 'x' || s[index] == 'X'))
....................       {
....................          base = 16;
....................          index++;
....................          c = s[index++];
....................       }
.................... 
....................       // The number is a decimal number
....................       if (base == 10)
....................       {
....................          while (c >= '0' && c <= '9') {
....................             result = (result << 1) + (result << 3);  // result *= 10;
....................             result += (c - '0');
....................             c = s[index++];
....................          }
....................       }
....................       else if (base == 16)    // The number is a hexa number
....................       {
....................          c = toupper(c);
....................          while ((c >= '0' && c <= '9') || (c >= 'A' && c <='F'))
....................          {
....................             if (c >= '0' && c <= '9')
....................                result = (result << 4) + (c - '0');
....................             else
....................                result = (result << 4) + (c - 'A' + 10);
.................... 
....................             c = s[index++];c = toupper(c);
....................          }
....................       }
....................    }
.................... 
....................    if (base == 10 && sign == 1)
....................       result = -result;
.................... 
....................    return(result);
.................... }
.................... 
.................... signed int64 atoi64(char *s)
.................... {
....................    signed int64 result;
....................    int8 sign, base, index;
....................    char c;
.................... 
....................    index = 0;
....................    sign = 0;
....................    base = 10;
....................    result = 0;
.................... 
....................    if (!s)
....................       return 0;
....................    c = s[index++];
.................... 
....................    // increase index if either positive or negative sign is detected
....................    if (c == '-')
....................    {
....................       sign = 1;         // Set the sign to negative
....................       c = s[index++];
....................    }
....................    else if (c == '+')
....................    {
....................       c = s[index++];
....................    }
.................... 
....................    if (c >= '0' && c <= '9')
....................    {
....................       if (c == '0' && (s[index] == 'x' || s[index] == 'X'))
....................       {
....................          base = 16;
....................          index++;
....................          c = s[index++];
....................       }
.................... 
....................       // The number is a decimal number
....................       if (base == 10)
....................       {
....................          while (c >= '0' && c <= '9') {
....................             result = (result << 1) + (result << 3);  // result *= 10;
....................             result += (c - '0');
....................             c = s[index++];
....................          }
....................       }
....................       else if (base == 16)    // The number is a hexa number
....................       {
....................          c = toupper(c);
....................          while ((c >= '0' && c <= '9') || (c >= 'A' && c <='F'))
....................          {
....................             if (c >= '0' && c <= '9')
....................                result = (result << 4) + (c - '0');
....................             else
....................                result = (result << 4) + (c - 'A' + 10);
.................... 
....................             c = s[index++];c = toupper(c);
....................          }
....................       }
....................    }
.................... 
....................    if (base == 10 && sign == 1)
....................       result = -result;
.................... 
....................    return(result);
.................... }
.................... #endif
.................... 
.................... char * itoa(signed int32 num, unsigned int base, char * s)
.................... {
....................      unsigned int32 temp=1;
....................      unsigned int8 i,sign=0,cnt=0;
....................      char c;
.................... 
....................      if(num<0) {
....................          sign=1;        // Check for negative number
....................          num*=-1;
....................      }
.................... 
....................      while(temp>0) {
....................          temp=(num/base);
....................          s[cnt]=(num%base)+'0';    // Conversion
.................... 
....................          if(s[cnt]>0x39)
....................             s[cnt]+=0x7;
.................... 
....................          cnt++;
....................          num=temp;
....................      }
.................... 
....................      if(sign==1) {
....................          s[cnt]=0x2D;      // Negative sign
....................          cnt++;
....................      }
.................... 
....................      for(i = 0;i<(int8)(cnt/2);i++) {
.................... 
....................          c=s[i];
....................          s[i]=s[cnt-i-1];        // Reverse the number
....................          s[cnt-i-1]=c;
....................      }
....................      s[cnt]='\0';     // End the string
....................      return s;
.................... }
.................... 
.................... #if defined(__PCD__)
.................... 
.................... char * itoa(signed int48 num, unsigned int base, char * s)
.................... {
....................      unsigned int48 temp=1;
....................      unsigned int8 i,sign=0,cnt=0;
....................      char c;
.................... 
....................      if(num<0) {
....................          sign=1;        // Check for negative number
....................          num*=-1;
....................      }
.................... 
....................      while(temp>0) {
....................          temp=(num/base);
....................          s[cnt]=(num%base)+'0';    // Conversion
.................... 
....................          if(s[cnt]>0x39)
....................             s[cnt]+=0x7;
.................... 
....................          cnt++;
....................          num=temp;
....................      }
.................... 
....................      if(sign==1) {
....................          s[cnt]=0x2D;      // Negative sign
....................          cnt++;
....................      }
.................... 
....................      for(i = 0;i<(int8)(cnt/2);i++) {
.................... 
....................          c=s[i];
....................          s[i]=s[cnt-i-1];        // Reverse the number
....................          s[cnt-i-1]=c;
....................      }
....................      s[cnt]='\0';     // End the string
....................      return s;
.................... }
.................... 
.................... char * itoa(signed int64 num, unsigned int base, char * s)
.................... {
....................      unsigned int64 temp=1;
....................      unsigned int8 i,sign=0,cnt=0;
....................      char c;
....................      
....................      if(num<0) {
....................          sign=1;        // Check for negative number
....................          num*=-1;        
....................      }
.................... 
....................      while(temp>0) {
....................          temp=(num/base);
....................          s[cnt]=(num%base)+'0';    // Conversion
.................... 
....................          if(s[cnt]>0x39)
....................             s[cnt]+=0x7;
....................             
....................          cnt++;
....................          num=temp;
....................      }
.................... 
....................      if(sign==1) {
....................          s[cnt]=0x2D;      // Negative sign
....................          cnt++;
....................      }
.................... 
....................      for(i = 0;i<(int8)(cnt/2);i++) {
.................... 
....................          c=s[i];
....................          s[i]=s[cnt-i-1];        // Reverse the number
....................          s[cnt-i-1]=c;
....................      }
....................      s[cnt]='\0';     // End the string
....................      return s;
.................... }
.................... 
.................... #endif
.................... 
.................... float strtof(char *s, char **endptr)
.................... {
....................    float pow10 = 1.0;
....................    float result = 0.0;
....................    int1 skip = 1, sign = 0, point = 0;
....................    char c;
....................    unsigned int8 ptr = 0;
.................... 
....................    if (!s)
....................       return 0;
.................... 
....................    for(c=s[ptr++]; c!=0; c=s[ptr++])
....................    {
....................       if (skip && !isspace(c))
....................       {
....................          skip = 0;
....................          if (c == '+')
....................          {
....................             sign = 0;
....................             continue;
....................          }            
....................          else if (c == '-')
....................          {
....................             sign = 1;
....................             continue;
....................          }
....................       }
....................       if (!skip && (c == '.') && !point)
....................          point = 1;
....................       else if (!skip && isdigit(c))
....................       {
....................          c -= '0';
....................          if (point)
....................          {
....................             pow10 = pow10 * 10.0;
....................             result += (float)c / pow10;   
....................          }
....................          else
....................          {
....................             result = 10.0 * result + (float)c;
....................          }
....................       }
....................       else if (!skip)
....................          break;
....................    }
.................... 
....................    if (sign)
....................       result = -1*result;
....................       
....................    if(endptr)
....................    {
....................       if (ptr) {
....................          ptr--;
....................        #IF LONG_POINTERS 
....................          *((int16 *)endptr)= s+ptr; 
....................        #ELSE
....................          *((char *)endptr)=s+ptr;
....................        #ENDIF
....................       }
....................       else
....................       {
....................       #IF LONG_POINTERS
....................       *((int16 *)endptr)= s; 
....................       #ELSE
....................       *((char *)endptr)=s;
....................       #ENDIF
....................       }
....................    }
.................... 
....................    return(result);
.................... }
.................... 
.................... #if defined(__PCD__)
.................... float48 strtof48(char *s, char **endptr)
.................... {
....................    float48 pow10 = 1.0;
....................    float48 result = 0.0;
....................    int1 skip = 1, sign = 0, point = 0;
....................    char c;
....................    unsigned int8 ptr = 0;
.................... 
....................    if (!s)
....................       return 0;
.................... 
....................    for(c=s[ptr++]; c!=0; c=s[ptr++])
....................    {
....................       if (skip && !isspace(c))
....................       {
....................          skip = 0;
....................          if (c == '+')
....................          {
....................             sign = 0;
....................             continue;
....................          }            
....................          else if (c == '-')
....................          {
....................             sign = 1;
....................             continue;
....................          }
....................       }
....................       if (!skip && (c == '.') && !point)
....................          point = 1;
....................       else if (!skip && isdigit(c))
....................       {
....................          c -= '0';
....................          if (point)
....................          {
....................             pow10 = pow10 * 10.0;
....................             result += (float48)c / pow10;   
....................          }
....................          else
....................          {
....................             result = 10.0 * result + (float48)c;
....................          }
....................       }
....................       else if (!skip)
....................          break;
....................    }
.................... 
....................    if (sign)
....................       result = -1*result;
....................       
....................    if(endptr)
....................    {
....................       if (ptr) {
....................          ptr--;
....................        #IF LONG_POINTERS 
....................          *((int16 *)endptr)= s+ptr; 
....................        #ELSE
....................          *((char *)endptr)=s+ptr;
....................        #ENDIF
....................       }
....................       else
....................       {
....................       #IF LONG_POINTERS
....................       *((int16 *)endptr)= s; 
....................       #ELSE
....................       *((char *)endptr)=s;
....................       #ENDIF
....................       }
....................    }
.................... 
....................    return(result);
.................... }
.................... 
.................... float64 strtod(char *s, char **endptr)
.................... {
....................    float64 pow10 = 1.0;
....................    float64 result = 0.0;
....................    int1 skip = 1, sign = 0, point = 0;
....................    char c;
....................    unsigned int8 ptr = 0;
.................... 
....................    if (!s)
....................       return 0;
.................... 
....................    for(c=s[ptr++]; c!=0; c=s[ptr++])
....................    {
....................       if (skip && !isspace(c))
....................       {
....................          skip = 0;
....................          if (c == '+')
....................          {
....................             sign = 0;
....................             continue;
....................          }            
....................          else if (c == '-')
....................          {
....................             sign = 1;
....................             continue;
....................          }
....................       }
....................       if (!skip && (c == '.') && !point)
....................          point = 1;
....................       else if (!skip && isdigit(c))
....................       {
....................          c -= '0';
....................          if (point)
....................          {
....................             pow10 = pow10 * 10.0;
....................             result += (float64)c / pow10;   
....................          }
....................          else
....................          {
....................             result = 10.0 * result + (float64)c;
....................          }
....................       }
....................       else if (!skip)
....................          break;
....................    }
.................... 
....................    if (sign)
....................       result = -1*result;
....................       
....................    if(endptr)
....................    {
....................       if (ptr) {
....................          ptr--;
....................        #IF LONG_POINTERS 
....................          *((int16 *)endptr)= s+ptr; 
....................        #ELSE
....................          *((char *)endptr)=s+ptr;
....................        #ENDIF
....................       }
....................       else
....................       {
....................       #IF LONG_POINTERS
....................       *((int16 *)endptr)= s; 
....................       #ELSE
....................       *((char *)endptr)=s;
....................       #ENDIF
....................       }
....................    }
.................... 
....................    return(result);
.................... }
.................... #endif
.................... 
.................... #ifndef __PCB__
.................... unsigned long strtoul(char *s, char *endptr, signed int base)
.................... {
....................    char *sc,*s1,*sd;
....................    unsigned long x=0;
....................    char sign;
....................    char digits[]="0123456789abcdefghijklmnopqstuvwxyz";
....................    for(sc=s;isspace(*sc);++sc);
....................    sign=*sc=='-'||*sc=='+'?*sc++:'+';
....................    if(sign=='-' || base <0 || base ==1|| base >36) // invalid base
....................    goto StrtoulGO;
.................... 
....................    else if (base)
....................    {
....................       if(base==16 && *sc =='0'&&(sc[1]=='x' || sc[1]=='X'))
....................          sc+=2;
....................       if(base==8 && *sc =='0')
....................          sc+=1;
....................       if(base==2 && *sc =='0'&&sc[1]=='b')
....................          sc+=2;
.................... 
....................    }
....................    else if(*sc!='0') // base is 0, find base
....................       base=10;
....................    else if (sc[1]=='x' || sc[1]=='X')
....................       base =16,sc+=2;
....................    else if(sc[1]=='b')
....................       base=2,sc+=2;
....................    else
....................       base=8;
....................    for (s1=sc;*sc=='0';++sc);// skip leading zeroes
....................    sd=memchr(digits,tolower(*sc),base);
....................    for(; sd!=0; )
....................    {
....................       x=x*base+(int16)(sd-digits);
....................       ++sc;
....................       sd=memchr(digits,tolower(*sc),base);
....................    }
....................    if(s1==sc)
....................    {
....................    StrtoulGO:
....................       if (endptr)
....................       {
....................          #IF LONG_POINTERS
....................          *((int16 *)endptr)= s; 
....................          #ELSE
....................          *((char *)endptr)=s;
....................          #ENDIF
....................          }
....................    return 0;
....................    }
....................    if (endptr)
....................    {
....................          #IF LONG_POINTERS
....................          *((int16 *)endptr)= sc; 
....................          #ELSE
....................          *((char *)endptr)=sc; 
....................          #ENDIF
....................    }
....................    return x;
.................... }
.................... 
.................... 
.................... signed long strtol(char *s,char *endptr, signed int base)
.................... {
....................    char *sc,*s1,*sd;
....................    signed long x=0;
....................    char sign;
....................    char digits[]="0123456789abcdefghijklmnopqstuvwxyz";
....................    for(sc=s;isspace(*sc);++sc);
....................    sign=*sc=='-'||*sc=='+'?*sc++:'+';
....................    if (base <0 || base ==1|| base >36) // invalid base
....................    goto StrtolGO;
....................    else if (base)
....................    {
....................       if(base==16 && *sc =='0'&&(sc[1]=='x' || sc[1]=='X'))
....................          sc+=2;
....................       if(base==8 && *sc =='0')
....................          sc+=1;
....................       if(base==2 && *sc =='0'&&sc[1]=='b')
....................          sc+=2;
.................... 
....................    }
....................    else if(*sc!='0') // base is 0, find base
....................       base=10;
....................    else if (sc[1]=='x' || sc[1]=='X')
....................       base =16,sc+=2;
....................    else if(sc[1]=='b')
....................       base=2,sc+=2;
....................    else
....................       base=8;
....................    for (s1=sc;*sc=='0';++sc);// skip leading zeroes
.................... 
....................    sd=memchr(digits,tolower(*sc),base);
....................    for(;sd!=0;)
....................    {
....................       x=x*base+(int16)(sd-digits);
....................       ++sc;
....................       sd=memchr(digits,tolower(*sc),base);
....................    }
....................    if(s1==sc)
....................    {
....................    StrtolGO:
....................       if (endptr)
....................       {
....................          #IF LONG_POINTERS
....................          *((int16 *)endptr)= s; 
....................          #ELSE
....................          *((char *)endptr)=s;
....................          #ENDIF
....................       }
....................    return 0;
....................    }
....................    if(sign=='-')
....................       x  =-x;
....................    if (endptr)
....................    {
....................         #IF LONG_POINTERS
....................          *((int16 *)endptr)= sc; 
....................         #ELSE
....................         *((char *)endptr)=sc;
....................         #ENDIF
....................    }
....................    return x;
.................... }
.................... #endif
.................... 
.................... signed int8 system(char *string)
.................... {
....................    return 0;
.................... }
.................... 
.................... size_t mblen(char *s,size_t n)
.................... {
....................    return strlen(s);
.................... }
.................... 
.................... int8 mbtowc(wchar_t *pwc,char *s,size_t n)
.................... {
....................    *pwc=*s;
....................    return 1;
.................... }
.................... 
.................... int8 wctomb(char *s,wchar_t wchar)
.................... {
....................    *s=wchar;
....................    return 1;
.................... }
.................... 
.................... size_t mbstowcs(wchar_t *pwcs,char *s,size_t n)
.................... {
....................    strncpy((char *)pwcs,s,n);
....................    return strlen((char *)pwcs);
.................... }
.................... 
.................... size_t wcstombs(char *s,wchar_t *pwcs,size_t n)
.................... {
....................    strncpy(s,(char *)pwcs,n);
....................    return strlen(s);
.................... }
.................... 
.................... //---------------------------------------------------------------------------
.................... // The random number implementation
.................... //---------------------------------------------------------------------------
.................... 
.................... unsigned int32 _Randseed;
.................... 
.................... unsigned int16 rand(void)
.................... {
....................    _Randseed = _Randseed * 1103515245 + 12345;
....................    return ((unsigned int16)(_Randseed >> 16) % RAND_MAX);
.................... }
.................... 
.................... void srand(unsigned int32 seed)
.................... {
....................    _Randseed = seed;
.................... }
.................... 
.................... //---------------------------------------------------------------------------
.................... // Searching and sorting utilities implementation
.................... //---------------------------------------------------------------------------
.................... 
.................... #if !defined(__PCD__)
.................... typedef signed int8 (*_Cmpfun)(char * p1,char * p2); 
.................... #else 
.................... typedef signed int16 (*_Cmpfun)(char * p1,char * p2); 
.................... #endif
.................... 
.................... 
.................... 
.................... void qsort(char * qdata, unsigned int qitems, unsigned int qsize, _Cmpfun cmp) {
....................    unsigned int m,j,i,l;
....................    int1 done;
....................    unsigned int8 t[16];
.................... 
....................    m = qitems/2;
....................    while( m > 0 ) {
....................      for(j=0; j<(qitems-m); ++j) {
....................         i = j;
....................         do
....................         {
....................            done=1;
....................            l = i+m;
....................            if( (*cmp)(qdata+i*qsize, qdata+l*qsize) > 0 ) {
....................               memcpy(t, qdata+i*qsize, qsize);
....................               memcpy(qdata+i*qsize, qdata+l*qsize, qsize);
....................               memcpy(qdata+l*qsize, t, qsize);
....................               if(m <= i)
....................                 i -= m;
....................                 done = 0;
....................            }
....................         } while(!done);
....................      }
....................      m = m/2;
....................    }
.................... }
.................... 
.................... 
.................... char *bsearch(char *key, char *base, size_t num, size_t width,_Cmpfun cmp)
.................... {
....................    char *p, *q;
....................    size_t n;
....................    size_t pivot;
....................    signed int val;
.................... 
....................    p = base;
....................    n = num;
.................... 
....................    while (n > 0)
....................    {
....................       pivot = n >> 1;
....................       q = p + width * pivot;
.................... 
....................       val = (*cmp)(key, q);
.................... 
....................       if (val < 0)
....................          n = pivot;
....................       else if (val == 0)
....................          return ((char *)q);
....................       else {
....................          p = q + width;
....................          n -= pivot + 1;
....................       }
....................    }
.................... 
....................    return NULL;      // There's no match
.................... }
.................... 
.................... 
.................... #endif
.................... 
.................... #include <string.h>
.................... ////////////////////////////////////////////////////////////////////////////
.................... ////        (C) Copyright 1996,2008 Custom Computer Services            ////
.................... //// This source code may only be used by licensed users of the CCS C   ////
.................... //// compiler.  This source code may only be distributed to other       ////
.................... //// licensed users of the CCS C compiler.  No other use, reproduction  ////
.................... //// or distribution is permitted without written permission.           ////
.................... //// Derivative programs created using this software in object code     ////
.................... //// form are not restricted in any way.                                ////
.................... ////////////////////////////////////////////////////////////////////////////
.................... 
.................... #ifndef _STRING
.................... #define _STRING
.................... #include <stddef.h>
.................... #include <ctype.h>
.................... 
.................... 
.................... 
.................... //////////////////////////////////////////////
.................... //// Uncomment the following define to    ////
.................... //// allow some functions to use a        ////
.................... //// quicker algorithm, but use more ROM  ////
.................... ////                                      ////
.................... //// #define FASTER_BUT_MORE_ROM          ////
.................... //////////////////////////////////////////////
.................... 
.................... 
.................... 
.................... /*Copying functions*/
.................... /* standard template:
....................    void *memmove(void *s1, void *s2, size_t n).
....................    Copies max of n characters safely (not following ending '\0')
....................    from s2 in s1; if s2 has less than n characters, appends 0 */
.................... 
.................... unsigned char *memmove(void *s1,void *s2,size_t n)
.................... {
....................    unsigned char *sc1;
....................    unsigned char *sc2;
....................    sc1=s1;
....................    sc2=s2;
....................    if(sc2<sc1 && sc1 <sc2 +n)
....................       for(sc1+=n,sc2+=n;0<n;--n)
....................          *--sc1=*--sc2;
....................    else
....................       for(;0<n;--n)
....................          *sc1++=*sc2++;
....................   return s1;
....................   }
.................... 
.................... /* Standard template: char *strcpy(char *s1, const char *s2)
....................    copies the string s2 including the null character to s1.
....................    This is a compiler built in to handle the different address
....................    spaces */
.................... 
.................... #define strcopy strcpy
.................... 
.................... /* standard template:
....................    char *strncpy(char *s1, const char *s2, size_t n).
....................    Copies max of n characters (not following ending '\0')
....................    from s2 in s1; if s2 has less than n characters, appends 0 */
.................... 
.................... char *strncpy(char *s1, char *s2, size_t n)
.................... {
....................   char *s;
.................... 
....................   for (s = s1; n > 0 && *s2 != '\0'; n--)
....................      *s++ = *s2++;
....................   for (; n > 0; n--)
....................      *s++ = '\0';
.................... 
....................   return(s1);
.................... }
.................... /***********************************************************/
.................... 
.................... /*concatenation functions*/
.................... /* standard template: char *strcat(char *s1, const char *s2)
.................... appends s2 to s1*/
.................... 
.................... char *strcat(char *s1, char *s2)
.................... {
....................    unsigned char *s;
.................... 
....................    for (s = s1; *s != '\0'; ++s);
....................    while(*s2 != '\0')
....................    {
....................       *s = *s2;
....................       ++s;
....................       ++s2;
....................    }
.................... 
....................    *s = '\0';
....................    return(s1);
.................... }
.................... /* standard template: char *strncat(char *s1, char *s2,size_t n)
.................... appends not more than n characters from s2 to s1*/
.................... 
.................... char *strncat(char *s1, char *s2, size_t n)
.................... {
....................    char *s;
.................... 
....................    for (s = s1; *s != '\0'; ++s);
....................    while(*s2 != '\0' && 0<n)
....................    {
....................       *s = *s2;
....................       ++s;
....................       ++s2;
....................       --n;
....................    }
.................... 
....................    *s = '\0';
....................    return(s1);
.................... }
.................... 
.................... /***********************************************************/
.................... 
.................... 
.................... /*comparison functions*/
.................... /* standard template: signed int memcmp(void *s1, void *s2).
....................    Compares s1 & s2; returns -1 if s1<s2, 0 if s1=s2, 1 if s1>s2 */
.................... 
.................... signed int memcmp(void * s1,void *s2,size_t n)
.................... {
.................... unsigned char *su1, *su2;
.................... for(su1=s1, su2=s2; 0<n; ++su1, ++su2, --n)
.................... {
....................    if(*su1!=*su2)
....................       return ((*su1<*su2)?-1:1);
.................... }
.................... return 0;
.................... }
.................... 
.................... /* standard template: int strcmp(const char *s1, const char *s2).
....................    Compares s1 & s2; returns -1 if s1<s2, 0 if s1=s2, 1 if s1>s2 */
.................... 
.................... signed int strcmp(char *s1, char *s2)
.................... {
....................    for (; *s1 == *s2; s1++, s2++)
....................       if (*s1 == '\0')
....................          return(0);
....................    return((*s1 < *s2) ? -1: 1);
.................... }
.................... /* standard template: int strcoll(const char *s1, const char *s2).
....................    Compares s1 & s2; returns -1 if s1<s2, 0 if s1=s2, 1 if s1>s2 */
.................... 
.................... signed int strcoll(char *s1, char *s2)
.................... {
....................    for (; *s1 == *s2; s1++, s2++)
....................       if (*s1 == '\0')
....................          return(0);
....................    return((*s1 < *s2) ? -1: 1);
.................... }
.................... 
.................... /* standard template:
....................    int strncmp(const char *s1, const char *s2, size_t n).
....................    Compares max of n characters (not following 0) from s1 to s2;
....................    returns same as strcmp */
.................... 
.................... signed int strncmp(char *s1, char *s2, size_t n)
.................... {
....................    for (; n > 0; s1++, s2++, n--)
....................       if (*s1 != *s2)
....................          return((*s1 <*s2) ? -1: 1);
....................       else if (*s1 == '\0')
....................          return(0);
....................    return(0);
.................... }
.................... /* standard template:
....................    int strxfrm(const char *s1, const char *s2, size_t n).
....................    transforms maximum of n characters from s2 and places them into s1, returns number of chars written ot s1.
....................    if s1 is NULL and n is 0, then it returns the length of s2.*/
.................... size_t strxfrm(char *s1, char *s2, size_t n)
.................... {
....................    char c;
....................    size_t n1;
....................    
....................    if (!s1 && !n)
....................       n = -1; //find length
.................... 
....................    n1 = 0;
....................    
....................    for (; n1 < n; n1++)
....................    {
....................       c = *s2++;
....................       if (!c)
....................          break;
....................       if (s1)
....................          *s1++ = c;
....................    }
.................... 
....................   return(n1);
.................... }
.................... 
.................... 
.................... 
.................... 
.................... 
.................... /***********************************************************/
.................... /*Search functions*/
.................... /* standard template: void *memchr(const char *s, int c).
....................    Finds first occurrence of c in n characters of s */
.................... 
.................... char *memchr(void *s,unsigned int8 c,size_t n)
.................... {
....................    char uc;
....................    char *su;
....................    uc=c;
....................    for(su=s;0<n;++su,--n)
....................       if(*su==uc)
....................       return su;
....................    return NULL;
.................... }
.................... 
.................... /* standard template: char *strchr(const char *s, int c).
....................    Finds first occurrence of c in s */
.................... 
.................... char *strchr(char *s, char c)
.................... {
....................    for (; *s != c; s++)
....................       if (*s == '\0')
....................          return(0);
....................    return(s);
.................... }
.................... /* standard template:
....................    size_t strcspn(const char *s1, const char *s2).
....................    Computes length of max initial segment of s1 that
....................    consists entirely of characters NOT from s2*/
.................... 
.................... size_t strcspn(char *s1, char *s2)
.................... {
....................    char *sc1, *sc2;
.................... 
....................    for (sc1 = s1; *sc1 != 0; sc1++)
....................       for (sc2 = s2; *sc2 != 0; sc2++)
....................          if (*sc1 == *sc2)
....................             return(sc1 - s1);
....................    return(sc1 - s1);
.................... }
.................... /* standard template:
....................    char *strpbrk(const char *s1, const char *s2).
....................    Locates first occurence of any character from s2 in s1;
....................    returns s1 if s2 is empty string */
.................... 
.................... char *strpbrk(char *s1, char *s2)
.................... {
....................    char *sc1, *sc2;
.................... 
....................    for (sc1 = s1; *sc1 != 0; sc1++)
....................       for (sc2 = s2; *sc2 != 0; sc2++)
....................          if (*sc1 == *sc2)
....................             return(sc1);
....................    return(0);
.................... }
.................... 
.................... 
.................... /* standard template: char *strrchr(const char *s, int c).
....................    Finds last occurrence of c in s */
.................... 
.................... char *strrchr(char *s, char c)
.................... {
....................    char *p;
.................... 
....................    for (p = 0; ; s++)
....................    {
....................       if (*s == c)
....................          p = s;
....................       if (*s == '\0')
....................          return(p);
....................    }
.................... }
.................... /* computes length of max initial segment of s1 consisting
....................    entirely of characters from s2 */
.................... 
.................... size_t strspn(char *s1, char *s2)
.................... {
....................    char *sc1, *sc2;
.................... 
....................    for (sc1 = s1; *sc1 != 0; sc1++)
....................       for (sc2 = s2; ; sc2++)
....................     if (*sc2 == '\0')
....................        return(sc1 - s1);
....................          else if (*sc1 == *sc2)
....................             break;
....................    return(sc1 - s1);
.................... }
.................... /* standard template:
....................    char *strstr(const char *s1, const char *s2);
....................    Locates first occurence of character sequence s2 in s1;
....................    returns 0 if s2 is empty string
.................... 
....................    Uncomment #define FASTER_BUT_MORE_ROM at the top of the
....................    file to use the faster algorithm */
.................... char *strstr(char *s1, char *s2)
.................... {
....................    char *s, *t;
.................... 
....................    #ifdef FASTER_BUT_MORE_ROM
....................    if (*s2 == '\0')
....................          return(s1);
....................    #endif
.................... 
....................    while (*s1)
....................    {
....................       for(s = s1, t = s2; *t && (*s == *t); ++s, ++t);
.................... 
....................       if (*t == '\0')
....................          return s1;
....................       ++s1;
....................       #ifdef FASTER_BUT_MORE_ROM
....................          while(*s1 != '\0' && *s1 != *s2)
....................             ++s1;
....................       #endif
....................    }
....................    return 0;
.................... }
.................... 
.................... /* standard template: size_t strlen(const char *s).
....................    Computes length of s1 (preceding terminating 0) */
.................... 
.................... size_t strlen(char *s)
.................... {
....................    char *sc;
.................... 
....................    for (sc = s; *sc != 0; sc++);
....................    return(sc - s);
.................... }
.................... 
.................... /* standard template: char *strtok(char *s1, const char *s2).
.................... 
....................    Finds next token in s1 delimited by a character from separator
....................    string s2 (which can be different from call to call).  First call
....................    starts at beginning of s1 searching for first character NOT
....................    contained in s2; returns 0 if none is found.
....................    If one is found, it is the start of first token (return value).
....................    Function then searches from there for a character contained in s2.
....................    If none is found, current token extends to end of s1, and subsequent
....................    searches for a token will return 0.  If one is found, it is
....................    overwritten by '\0', which terminates current token.  Function saves
....................    pointer to following character from which next search will start.
....................    Each subsequent call, with 0 as first argument, starts searching
....................    from saved pointer */
.................... 
.................... char *strtok(char *s1, char *s2)
.................... {
....................    char *beg, *end;
....................    static char *save;
.................... 
....................    beg = (s1)? s1: save;
....................    beg += strspn(beg, s2);
....................    if (*beg == '\0')
....................       return(0);
....................       
....................    end = strpbrk(beg, s2);
....................    if (end != '\0')
....................    {
....................       *end = '\0';
....................       end++;
....................       save = end;
....................    }
....................    else
....................       save = beg + strlen(beg);
....................    
....................    return(beg);
.................... }
.................... 
.................... /*****************************************************************/
.................... /*Miscellaneous functions*/
.................... /* standard template
.................... maps error number in errnum to an error message string
.................... Returns: Pointer to string
.................... */
.................... #ifdef _ERRNO
.................... char * strerror(unsigned int8 errnum)
.................... {
.................... static unsigned char s[13];
.................... switch( errnum)
.................... {
.................... case 0:
....................    strcpy(s,"no errors");
....................    return s;
.................... case EDOM :
....................    strcpy(s,"domain error");
....................    return s;
.................... case ERANGE:
....................    strcpy(s,"range error");
....................    return s;
.................... }
.................... }
.................... #ENDIF
.................... 
.................... /* standard template: size_t stricmp(const char *s1, const char *s2).
....................    Compares s1 to s2 ignoring case (upper vs. lower) */
.................... 
.................... signed int stricmp(char *s1, char *s2)
.................... {
....................  for(; *s1==*s2||(isalpha(*s1)&&isalpha(*s2)&&((char)*s1==(char)*s2+(char)32||(char)*s2==(char)*s1+(char)32));
....................     s1++, s2++)
....................     if (*s1 == '\0')
....................        return(0);
....................  return((*s1 < *s2) ? -1: 1);
.................... }
.................... 
.................... 
.................... /* standard template: char *strlwr(char *s).
....................    Replaces uppercase letters by lowercase;
....................    returns pointer to new string s */
.................... 
.................... char *strlwr(char *s)
.................... {
....................    char *p;
.................... 
....................    for (p = s; *p != '\0'; p++)
....................       if (*p >= 'A' && *p <='Z')
....................          *p += 'a' - 'A';
....................    return(s);
.................... }
.................... 
.................... /* standard template: char *strupr(char *s).
....................    Replaces lowercase letters by upercase;
....................    returns pointer to new string s */
.................... 
.................... char *strupr(char *s)
.................... {
....................    char *p;
.................... 
....................    for (p = s; *p != '\0'; p++)
....................       if (*p >= 'a' && *p <='z')
....................          *p -= 'a' - 'A';
....................    return(s);
.................... }
.................... 
.................... 
.................... /************************************************************/
.................... 
.................... 
.................... #endif
.................... 
.................... 
.................... int numb_inside=4;
.................... int dizaine=0;
.................... int limit = 5;
.................... 
.................... boolean flag_RB0=0;
.................... boolean flag_RB1=0;
.................... boolean flag_RDA=0;
.................... 
.................... char buffer[4];
.................... 
.................... #INT_EXT
.................... void  EXT_isr(void) 
.................... {
....................    flag_RB0=1;
*
00C6:  BSF    22.0
.................... }
.................... 
00C8:  BCF    FF2.1
00CA:  GOTO   0078
.................... #INT_EXT1
.................... void  EXT1_isr(void) 
.................... {
....................    flag_RB1=1;
00CE:  BSF    22.1
.................... }
.................... 
00D0:  BCF    FF0.0
00D2:  GOTO   0078
.................... #INT_RDA
.................... void  RDA_isr(void) 
.................... {
....................    buffer[0] = getc();
00D6:  BTFSS  F9E.5
00D8:  BRA    00D6
00DA:  MOVFF  FAE,23
....................    flag_RDA=1;
00DE:  BSF    22.2
00E0:  BCF    F9E.5
00E2:  GOTO   0078
.................... }
.................... 
.................... void main()
*
02E4:  CLRF   FF8
02E6:  BCF    FD0.7
02E8:  BSF    07.7
02EA:  MOVLW  81
02EC:  MOVWF  FAF
02EE:  MOVLW  A6
02F0:  MOVWF  FAC
02F2:  MOVLW  90
02F4:  MOVWF  FAB
02F6:  MOVLW  04
02F8:  MOVWF  1F
02FA:  CLRF   20
02FC:  MOVLW  05
02FE:  MOVWF  21
0300:  BCF    22.0
0302:  BCF    22.1
0304:  BCF    22.2
0306:  BSF    FC1.0
0308:  BSF    FC1.1
030A:  BSF    FC1.2
030C:  BCF    FC1.3
030E:  MOVLW  07
0310:  MOVWF  FB4
0312:  CLRF   19
0314:  CLRF   1A
.................... {
.................... 
....................    enable_interrupts(INT_EXT);
0316:  BSF    FF2.4
....................    enable_interrupts(INT_EXT1);
0318:  BSF    FF0.3
....................    enable_interrupts(INT_RDA);
031A:  BSF    F9D.5
....................    enable_interrupts(GLOBAL);
031C:  MOVLW  C0
031E:  IORWF  FF2,F
....................    setup_low_volt_detect(FALSE);
0320:  CLRF   FD2
.................... 
....................    for(;;){
.................... 
....................       if(flag_RDA){
0322:  BTFSS  22.2
0324:  BRA    0334
.................... 
....................          flag_RDA = 0;
0326:  BCF    22.2
....................          limit = atoi(buffer);
0328:  CLRF   29
032A:  MOVLW  23
032C:  MOVWF  28
032E:  BRA    0132
0330:  MOVFF  01,21
....................       }
....................       
....................       int val=numb_inside+dizaine*16;
0334:  MOVF   20,W
0336:  MULLW  10
0338:  MOVF   FF3,W
033A:  ADDWF  1F,W
033C:  MOVWF  27
....................       output_d(val);
033E:  CLRF   F95
0340:  MOVFF  27,F8C
....................       
....................       if( limit<val){
0344:  MOVF   27,W
0346:  SUBWF  21,W
0348:  BC    0368
....................          output_e(2);
034A:  BCF    F96.0
034C:  BCF    F96.1
034E:  BCF    F96.2
0350:  MOVLW  02
0352:  MOVWF  F8D
....................          delay_ms(250);
0354:  MOVLW  FA
0356:  MOVWF  28
0358:  RCALL  02BE
....................          output_e(0);
035A:  BCF    F96.0
035C:  BCF    F96.1
035E:  BCF    F96.2
0360:  CLRF   F8D
....................          delay_ms(250);
0362:  MOVLW  FA
0364:  MOVWF  28
0366:  RCALL  02BE
....................       }
....................       
....................       if(limit>=val){
0368:  MOVF   27,W
036A:  SUBWF  21,W
036C:  BNC   0378
....................          output_e(1);
036E:  BCF    F96.0
0370:  BCF    F96.1
0372:  BCF    F96.2
0374:  MOVLW  01
0376:  MOVWF  F8D
....................       }
....................       
....................       if (flag_RB0){
0378:  BTFSS  22.0
037A:  BRA    038E
....................          if( numb_inside == 9 ){
037C:  MOVF   1F,W
037E:  SUBLW  09
0380:  BNZ   0388
....................             numb_inside=0;
0382:  CLRF   1F
....................             dizaine++;
0384:  INCF   20,F
....................          }
0386:  BRA    038A
....................          else{
....................             numb_inside++;
0388:  INCF   1F,F
....................          }
....................          flag_RB0=0;
038A:  BCF    22.0
....................       }
038C:  BRA    03B2
....................       else if(flag_RB1){
038E:  BTFSS  22.1
0390:  BRA    03B2
....................          if(numb_inside == 0 && dizaine>0){
0392:  MOVF   1F,F
0394:  BNZ   03A2
0396:  MOVF   20,F
0398:  BZ    03A2
....................             numb_inside=9;
039A:  MOVLW  09
039C:  MOVWF  1F
....................             dizaine--;
039E:  DECF   20,F
....................          }
03A0:  BRA    03B0
....................          else if(numb_inside == 0 && dizaine==0){
03A2:  MOVF   1F,F
03A4:  BNZ   03AE
03A6:  MOVF   20,F
03A8:  BNZ   03AE
....................             continue;
03AA:  BRA    03B2
....................          }
03AC:  BRA    03B0
....................          else{
....................             numb_inside--;
03AE:  DECF   1F,F
....................          }
....................          flag_RB1=0;
03B0:  BCF    22.1
....................       }
03B2:  BRA    0322
....................    }
.................... }
.................... 
03B4:  SLEEP 

Configuration Fuses:
   Word  1: 2200   HS NOOSCSEN
   Word  2: 0E0E   PUT BROWNOUT BORV25 NOWDT WDT128
   Word  3: 0000  
   Word  4: 0081   STVREN NOLVP NODEBUG
   Word  5: C00F   NOPROTECT NOCPB NOCPD
   Word  6: E00F   NOWRT NOWRTC NOWRTB NOWRTD
   Word  7: 400F   NOEBTR NOEBTRB
